
uart.elf:     file format elf64-littleaarch64


Disassembly of section .text:

0000000020000000 <__start>:
    20000000:	140005e2 	b	20001788 <_boot>
	...
    20000080:	14000000 	b	20000080 <__start+0x80>
	...
    20000100:	14000000 	b	20000100 <__start+0x100>
	...
    20000180:	14000000 	b	20000180 <__start+0x180>
	...
    20000200:	14000000 	b	20000200 <__start+0x200>
	...
    20000280:	14000000 	b	20000280 <__start+0x280>
	...
    20000300:	14000000 	b	20000300 <__start+0x300>
	...
    20000380:	14000000 	b	20000380 <__start+0x380>
	...
    20000400:	14000000 	b	20000400 <__start+0x400>
	...
    20000480:	14000000 	b	20000480 <__start+0x480>
	...
    20000500:	14000000 	b	20000500 <__start+0x500>
	...
    20000580:	14000000 	b	20000580 <__start+0x580>
	...
    20000600:	14000000 	b	20000600 <__start+0x600>
	...
    20000680:	14000000 	b	20000680 <__start+0x680>
	...
    20000700:	14000000 	b	20000700 <__start+0x700>
	...
    20000780:	14000000 	b	20000780 <__start+0x780>
	...

0000000020001000 <_freertos_vector_table>:
    20001000:	14000700 	b	20002c00 <FreeRTOS_SWI_Handler>
	...
    20001080:	140007a0 	b	20002f00 <FreeRTOS_IRQ_Handler>
	...
    20001100:	14000000 	b	20001100 <_freertos_vector_table+0x100>
	...
    20001180:	14000000 	b	20001180 <_freertos_vector_table+0x180>
	...
    20001200:	14000680 	b	20002c00 <FreeRTOS_SWI_Handler>
	...
    20001280:	14000720 	b	20002f00 <FreeRTOS_IRQ_Handler>
	...
    20001300:	14000000 	b	20001300 <_freertos_vector_table+0x300>
	...
    20001380:	14000000 	b	20001380 <_freertos_vector_table+0x380>
	...
    20001400:	14000000 	b	20001400 <_freertos_vector_table+0x400>
	...
    20001480:	14000000 	b	20001480 <_freertos_vector_table+0x480>
	...
    20001500:	14000000 	b	20001500 <_freertos_vector_table+0x500>
	...
    20001580:	14000000 	b	20001580 <_freertos_vector_table+0x580>
	...
    20001600:	14000000 	b	20001600 <_freertos_vector_table+0x600>
	...
    20001680:	14000000 	b	20001680 <_freertos_vector_table+0x680>
	...
    20001700:	14000000 	b	20001700 <_freertos_vector_table+0x700>
	...
    20001780:	14000000 	b	20001780 <_freertos_vector_table+0x780>
    20001784:	00000000 	.inst	0x00000000 ; undefined

0000000020001788 <_boot>:
    20001788:	d53800a1 	mrs	x1, mpidr_el1
    2000178c:	92400421 	and	x1, x1, #0x3
    20001790:	f1000c3f 	cmp	x1, #0x3
    20001794:	54000381 	b.ne	20001804 <kick_core3>  // b.any

0000000020001798 <start_el2>:
    20001798:	d2b00000 	mov	x0, #0x80000000            	// #2147483648
    2000179c:	b27f0000 	orr	x0, x0, #0x2
    200017a0:	d51c1100 	msr	hcr_el2, x0
    200017a4:	d5033fdf 	isb
    200017a8:	d28078a2 	mov	x2, #0x3c5                 	// #965
    200017ac:	d51c4002 	msr	spsr_el2, x2
    200017b0:	d5033fdf 	isb
    200017b4:	10000082 	adr	x2, 200017c4 <start_el1>
    200017b8:	d51c4022 	msr	elr_el2, x2
    200017bc:	d5033fdf 	isb
    200017c0:	d69f03e0 	eret

00000000200017c4 <start_el1>:
    200017c4:	d5381041 	mrs	x1, cpacr_el1
    200017c8:	d2a00600 	mov	x0, #0x300000              	// #3145728
    200017cc:	aa000020 	orr	x0, x1, x0
    200017d0:	d5181040 	msr	cpacr_el1, x0
    200017d4:	f0002fe1 	adrp	x1, 20600000 <PT_BASE>
    200017d8:	9100003f 	mov	sp, x1
    200017dc:	58000260 	ldr	x0, 20001828 <kick_core3+0x24>
    200017e0:	d63f0000 	blr	x0
    200017e4:	58000261 	ldr	x1, 20001830 <kick_core3+0x2c>
    200017e8:	180001c2 	ldr	w2, 20001820 <kick_core3+0x1c>
    200017ec:	34000082 	cbz	w2, 200017fc <start_el1+0x38>
    200017f0:	f800843f 	str	xzr, [x1], #8
    200017f4:	51000442 	sub	w2, w2, #0x1
    200017f8:	35ffffa2 	cbnz	w2, 200017ec <start_el1+0x28>
    200017fc:	9400133d 	bl	200064f0 <main>
    20001800:	d65f03c0 	ret

0000000020001804 <kick_core3>:
    20001804:	d2801e01 	mov	x1, #0xf0                  	// #240
    20001808:	58000182 	ldr	x2, 20001838 <kick_core3+0x34>
    2000180c:	f9000022 	str	x2, [x1]
    20001810:	d503209f 	sev
    20001814:	d503205f 	wfe
    20001818:	d2800000 	mov	x0, #0x0                   	// #0
    2000181c:	d65f03c0 	ret
    20001820:	00004000 	.word	0x00004000
    20001824:	00000000 	.inst	0x00000000 ; undefined
    20001828:	200022e0 	.word	0x200022e0
    2000182c:	00000000 	.word	0x00000000
    20001830:	20008000 	.word	0x20008000
    20001834:	00000000 	.word	0x00000000
    20001838:	20000000 	.word	0x20000000
    2000183c:	00000000 	.word	0x00000000

0000000020001840 <enable_cntv>:
    20001840:	52800020 	mov	w0, #0x1                   	// #1
    20001844:	d51be320 	msr	cntv_ctl_el0, x0
    20001848:	d65f03c0 	ret
    2000184c:	d503201f 	nop

0000000020001850 <write_cntv_tval>:
    20001850:	d51be300 	msr	cntv_tval_el0, x0
    20001854:	d65f03c0 	ret
    20001858:	d503201f 	nop
    2000185c:	d503201f 	nop

0000000020001860 <read_cntfrq>:
    20001860:	d53be000 	mrs	x0, cntfrq_el0
    20001864:	d65f03c0 	ret
    20001868:	d503201f 	nop
    2000186c:	d503201f 	nop

0000000020001870 <init_timer>:
    20001870:	a9bf7bfd 	stp	x29, x30, [sp, #-16]!
    20001874:	910003fd 	mov	x29, sp
    20001878:	97fffffa 	bl	20001860 <read_cntfrq>
    2000187c:	f0000022 	adrp	x2, 20008000 <__bss_start>
    20001880:	91000043 	add	x3, x2, #0x0
    20001884:	b9000460 	str	w0, [x3, #4]
    20001888:	a8c17bfd 	ldp	x29, x30, [sp], #16
    2000188c:	b9000040 	str	w0, [x2]
    20001890:	17fffff0 	b	20001850 <write_cntv_tval>
    20001894:	d503201f 	nop
    20001898:	d503201f 	nop
    2000189c:	d503201f 	nop

00000000200018a0 <timer_set_tick_rate_hz>:
    200018a0:	f0000022 	adrp	x2, 20008000 <__bss_start>
    200018a4:	91000041 	add	x1, x2, #0x0
    200018a8:	b9400421 	ldr	w1, [x1, #4]
    200018ac:	1ac00820 	udiv	w0, w1, w0
    200018b0:	b9000040 	str	w0, [x2]
    200018b4:	17ffffe7 	b	20001850 <write_cntv_tval>
    200018b8:	d503201f 	nop
    200018bc:	d503201f 	nop

00000000200018c0 <vConfigureTickInterrupt>:
    200018c0:	a9bf7bfd 	stp	x29, x30, [sp, #-16]!
    200018c4:	910003fd 	mov	x29, sp
    200018c8:	97ffffea 	bl	20001870 <init_timer>
    200018cc:	52807d00 	mov	w0, #0x3e8                 	// #1000
    200018d0:	97fffff4 	bl	200018a0 <timer_set_tick_rate_hz>
    200018d4:	97ffffdb 	bl	20001840 <enable_cntv>
    200018d8:	d0000023 	adrp	x3, 20007000 <pt_config>
    200018dc:	a8c17bfd 	ldp	x29, x30, [sp], #16
    200018e0:	52800102 	mov	w2, #0x8                   	// #8
    200018e4:	52801401 	mov	w1, #0xa0                  	// #160
    200018e8:	52800360 	mov	w0, #0x1b                  	// #27
    200018ec:	f940c463 	ldr	x3, [x3, #392]
    200018f0:	14000024 	b	20001980 <isr_register>
    200018f4:	d503201f 	nop
    200018f8:	d503201f 	nop
    200018fc:	d503201f 	nop

0000000020001900 <vClearTickInterrupt>:
    20001900:	f0000020 	adrp	x0, 20008000 <__bss_start>
    20001904:	b9400000 	ldr	w0, [x0]
    20001908:	17ffffd2 	b	20001850 <write_cntv_tval>
    2000190c:	d503201f 	nop

0000000020001910 <vApplicationIRQHandler>:
    20001910:	a9be7bfd 	stp	x29, x30, [sp, #-32]!
    20001914:	910003fd 	mov	x29, sp
    20001918:	721c141f 	tst	w0, #0x3f0
    2000191c:	f9000bf3 	str	x19, [sp, #16]
    20001920:	12002413 	and	w19, w0, #0x3ff
    20001924:	540000a1 	b.ne	20001938 <vApplicationIRQHandler+0x28>  // b.any
    20001928:	32160660 	orr	w0, w19, #0xc00
    2000192c:	f9400bf3 	ldr	x19, [sp, #16]
    20001930:	a8c27bfd 	ldp	x29, x30, [sp], #32
    20001934:	14000047 	b	20001a50 <eoi_notify>
    20001938:	2a1303e0 	mov	w0, w19
    2000193c:	94000045 	bl	20001a50 <eoi_notify>
    20001940:	71037e7f 	cmp	w19, #0xdf
    20001944:	54000128 	b.hi	20001968 <vApplicationIRQHandler+0x58>  // b.pmore
    20001948:	d0000020 	adrp	x0, 20007000 <pt_config>
    2000194c:	f940b000 	ldr	x0, [x0, #352]
    20001950:	f8737800 	ldr	x0, [x0, x19, lsl #3]
    20001954:	b40000a0 	cbz	x0, 20001968 <vApplicationIRQHandler+0x58>
    20001958:	aa0003f0 	mov	x16, x0
    2000195c:	f9400bf3 	ldr	x19, [sp, #16]
    20001960:	a8c27bfd 	ldp	x29, x30, [sp], #32
    20001964:	d61f0200 	br	x16
    20001968:	f9400bf3 	ldr	x19, [sp, #16]
    2000196c:	a8c27bfd 	ldp	x29, x30, [sp], #32
    20001970:	d65f03c0 	ret
	...

0000000020001980 <isr_register>:
    20001980:	7103fc1f 	cmp	w0, #0xff
    20001984:	2a0003e4 	mov	w4, w0
    20001988:	54000548 	b.hi	20001a30 <isr_register+0xb0>  // b.pmore
    2000198c:	7103fc3f 	cmp	w1, #0xff
    20001990:	54000548 	b.hi	20001a38 <isr_register+0xb8>  // b.pmore
    20001994:	7103fc5f 	cmp	w2, #0xff
    20001998:	54000548 	b.hi	20001a40 <isr_register+0xc0>  // b.pmore
    2000199c:	b4000563 	cbz	x3, 20001a48 <isr_register+0xc8>
    200019a0:	53057c05 	lsr	w5, w0, #5
    200019a4:	d282200c 	mov	x12, #0x1100                	// #4352
    200019a8:	f2bff08c 	movk	x12, #0xff84, lsl #16
    200019ac:	531e74a5 	lsl	w5, w5, #2
    200019b0:	b8654987 	ldr	w7, [x12, w5, uxtw]
    200019b4:	52800028 	mov	w8, #0x1                   	// #1
    200019b8:	121e7406 	and	w6, w0, #0xfffffffc
    200019bc:	1ac02108 	lsl	w8, w8, w0
    200019c0:	d282800b 	mov	x11, #0x1400                	// #5120
    200019c4:	f2bff08b 	movk	x11, #0xff84, lsl #16
    200019c8:	531d040a 	ubfiz	w10, w0, #3, #2
    200019cc:	52801fe0 	mov	w0, #0xff                  	// #255
    200019d0:	1aca2021 	lsl	w1, w1, w10
    200019d4:	1aca2000 	lsl	w0, w0, w10
    200019d8:	71007c9f 	cmp	w4, #0x1f
    200019dc:	2a0800e7 	orr	w7, w7, w8
    200019e0:	2a2003e9 	mvn	w9, w0
    200019e4:	b8254987 	str	w7, [x12, w5, uxtw]
    200019e8:	b8664965 	ldr	w5, [x11, w6, uxtw]
    200019ec:	0a2000a0 	bic	w0, w5, w0
    200019f0:	2a010000 	orr	w0, w0, w1
    200019f4:	b8264960 	str	w0, [x11, w6, uxtw]
    200019f8:	54000109 	b.ls	20001a18 <isr_register+0x98>  // b.plast
    200019fc:	d2830000 	mov	x0, #0x1800                	// #6144
    20001a00:	f2bff080 	movk	x0, #0xff84, lsl #16
    20001a04:	b8664801 	ldr	w1, [x0, w6, uxtw]
    20001a08:	1aca2042 	lsl	w2, w2, w10
    20001a0c:	0a010129 	and	w9, w9, w1
    20001a10:	2a020122 	orr	w2, w9, w2
    20001a14:	b8264802 	str	w2, [x0, w6, uxtw]
    20001a18:	d5033fdf 	isb
    20001a1c:	d0000021 	adrp	x1, 20007000 <pt_config>
    20001a20:	52800000 	mov	w0, #0x0                   	// #0
    20001a24:	f940b021 	ldr	x1, [x1, #352]
    20001a28:	f8245823 	str	x3, [x1, w4, uxtw #3]
    20001a2c:	d65f03c0 	ret
    20001a30:	12800000 	mov	w0, #0xffffffff            	// #-1
    20001a34:	d65f03c0 	ret
    20001a38:	12800020 	mov	w0, #0xfffffffe            	// #-2
    20001a3c:	d65f03c0 	ret
    20001a40:	12800040 	mov	w0, #0xfffffffd            	// #-3
    20001a44:	d65f03c0 	ret
    20001a48:	12800060 	mov	w0, #0xfffffffc            	// #-4
    20001a4c:	d65f03c0 	ret

0000000020001a50 <eoi_notify>:
    20001a50:	d2840201 	mov	x1, #0x2010                	// #8208
    20001a54:	f2bff081 	movk	x1, #0xff84, lsl #16
    20001a58:	b9000020 	str	w0, [x1]
    20001a5c:	d5033fdf 	isb
    20001a60:	d65f03c0 	ret
    20001a64:	d503201f 	nop
    20001a68:	d503201f 	nop
    20001a6c:	d503201f 	nop

0000000020001a70 <wait_gic_init>:
    20001a70:	d2820001 	mov	x1, #0x1000                	// #4096
    20001a74:	f2bff081 	movk	x1, #0xff84, lsl #16
    20001a78:	b9400020 	ldr	w0, [x1]
    20001a7c:	7100041f 	cmp	w0, #0x1
    20001a80:	54ffffc0 	b.eq	20001a78 <wait_gic_init+0x8>  // b.none
    20001a84:	d2820001 	mov	x1, #0x1000                	// #4096
    20001a88:	f2bff081 	movk	x1, #0xff84, lsl #16
    20001a8c:	d503201f 	nop
    20001a90:	b9400020 	ldr	w0, [x1]
    20001a94:	34ffffe0 	cbz	w0, 20001a90 <wait_gic_init+0x20>
    20001a98:	d65f03c0 	ret
    20001a9c:	00000000 	.inst	0x00000000 ; undefined

0000000020001aa0 <TaskA>:
    20001aa0:	a9bf7bfd 	stp	x29, x30, [sp, #-16]!
    20001aa4:	910003fd 	mov	x29, sp
    20001aa8:	52800540 	mov	w0, #0x2a                  	// #42
    20001aac:	9400015d 	bl	20002020 <gpio_pin_read>
    20001ab0:	93407c00 	sxtw	x0, w0
    20001ab4:	9400008b 	bl	20001ce0 <uart_puthex>
    20001ab8:	d2807d00 	mov	x0, #0x3e8                 	// #1000
    20001abc:	94000c31 	bl	20004b80 <vTaskDelay>
    20001ac0:	17fffffa 	b	20001aa8 <TaskA+0x8>
    20001ac4:	d503201f 	nop
    20001ac8:	d503201f 	nop
    20001acc:	d503201f 	nop

0000000020001ad0 <interval_func>:
    20001ad0:	a9bd7bfd 	stp	x29, x30, [sp, #-48]!
    20001ad4:	910003fd 	mov	x29, sp
    20001ad8:	52800021 	mov	w1, #0x1                   	// #1
    20001adc:	f9000bf3 	str	x19, [sp, #16]
    20001ae0:	9100a3f3 	add	x19, sp, #0x28
    20001ae4:	aa1303e0 	mov	x0, x19
    20001ae8:	790053ff 	strh	wzr, [sp, #40]
    20001aec:	94000091 	bl	20001d30 <uart_read_bytes>
    20001af0:	35000080 	cbnz	w0, 20001b00 <interval_func+0x30>
    20001af4:	f9400bf3 	ldr	x19, [sp, #16]
    20001af8:	a8c37bfd 	ldp	x29, x30, [sp], #48
    20001afc:	d65f03c0 	ret
    20001b00:	aa1303e0 	mov	x0, x19
    20001b04:	94000067 	bl	20001ca0 <uart_puts>
    20001b08:	3940a3e0 	ldrb	w0, [sp, #40]
    20001b0c:	7100c41f 	cmp	w0, #0x31
    20001b10:	540000e0 	b.eq	20001b2c <interval_func+0x5c>  // b.none
    20001b14:	7100c01f 	cmp	w0, #0x30
    20001b18:	54fffee1 	b.ne	20001af4 <interval_func+0x24>  // b.any
    20001b1c:	52800001 	mov	w1, #0x0                   	// #0
    20001b20:	52800540 	mov	w0, #0x2a                  	// #42
    20001b24:	94000123 	bl	20001fb0 <gpio_pin_set>
    20001b28:	17fffff3 	b	20001af4 <interval_func+0x24>
    20001b2c:	52800021 	mov	w1, #0x1                   	// #1
    20001b30:	52800540 	mov	w0, #0x2a                  	// #42
    20001b34:	9400011f 	bl	20001fb0 <gpio_pin_set>
    20001b38:	17ffffef 	b	20001af4 <interval_func+0x24>
    20001b3c:	d503201f 	nop

0000000020001b40 <vApplicationIdleHook>:
    20001b40:	d65f03c0 	ret
    20001b44:	d503201f 	nop
    20001b48:	d503201f 	nop
    20001b4c:	d503201f 	nop

0000000020001b50 <vApplicationTickHook>:
    20001b50:	d65f03c0 	ret
	...

0000000020001b60 <uart_isr>:
    20001b60:	d2828300 	mov	x0, #0x1418                	// #5144
    20001b64:	f2bfc400 	movk	x0, #0xfe20, lsl #16
    20001b68:	b9400000 	ldr	w0, [x0]
    20001b6c:	36200040 	tbz	w0, #4, 20001b74 <uart_isr+0x14>
    20001b70:	d65f03c0 	ret
    20001b74:	d0000020 	adrp	x0, 20007000 <pt_config>
    20001b78:	a9be7bfd 	stp	x29, x30, [sp, #-32]!
    20001b7c:	910003fd 	mov	x29, sp
    20001b80:	d2828004 	mov	x4, #0x1400                	// #5120
    20001b84:	f2bfc404 	movk	x4, #0xfe20, lsl #16
    20001b88:	91007fe1 	add	x1, sp, #0x1f
    20001b8c:	d2800003 	mov	x3, #0x0                   	// #0
    20001b90:	f940c000 	ldr	x0, [x0, #384]
    20001b94:	d2800002 	mov	x2, #0x0                   	// #0
    20001b98:	b9400084 	ldr	w4, [x4]
    20001b9c:	f9400000 	ldr	x0, [x0]
    20001ba0:	39007fe4 	strb	w4, [sp, #31]
    20001ba4:	f9400400 	ldr	x0, [x0, #8]
    20001ba8:	94000796 	bl	20003a00 <xQueueGenericSendFromISR>
    20001bac:	a8c27bfd 	ldp	x29, x30, [sp], #32
    20001bb0:	d65f03c0 	ret
    20001bb4:	d503201f 	nop
    20001bb8:	d503201f 	nop
    20001bbc:	d503201f 	nop

0000000020001bc0 <uart_putchar>:
    20001bc0:	a9be7bfd 	stp	x29, x30, [sp, #-32]!
    20001bc4:	910003fd 	mov	x29, sp
    20001bc8:	92800001 	mov	x1, #0xffffffffffffffff    	// #-1
    20001bcc:	a90153f3 	stp	x19, x20, [sp, #16]
    20001bd0:	d0000033 	adrp	x19, 20007000 <pt_config>
    20001bd4:	12001c14 	and	w20, w0, #0xff
    20001bd8:	f940c262 	ldr	x2, [x19, #384]
    20001bdc:	f9400040 	ldr	x0, [x2]
    20001be0:	f9400000 	ldr	x0, [x0]
    20001be4:	9400085f 	bl	20003d60 <xQueueSemaphoreTake>
    20001be8:	d2828301 	mov	x1, #0x1418                	// #5144
    20001bec:	f2bfc401 	movk	x1, #0xfe20, lsl #16
    20001bf0:	b9400020 	ldr	w0, [x1]
    20001bf4:	372fffe0 	tbnz	w0, #5, 20001bf0 <uart_putchar+0x30>
    20001bf8:	d2828000 	mov	x0, #0x1400                	// #5120
    20001bfc:	f2bfc400 	movk	x0, #0xfe20, lsl #16
    20001c00:	b9000014 	str	w20, [x0]
    20001c04:	d5033fdf 	isb
    20001c08:	f940c273 	ldr	x19, [x19, #384]
    20001c0c:	d2800003 	mov	x3, #0x0                   	// #0
    20001c10:	d2800002 	mov	x2, #0x0                   	// #0
    20001c14:	d2800001 	mov	x1, #0x0                   	// #0
    20001c18:	f9400260 	ldr	x0, [x19]
    20001c1c:	a94153f3 	ldp	x19, x20, [sp, #16]
    20001c20:	a8c27bfd 	ldp	x29, x30, [sp], #32
    20001c24:	f9400000 	ldr	x0, [x0]
    20001c28:	140006f2 	b	200037f0 <xQueueGenericSend>
    20001c2c:	d503201f 	nop

0000000020001c30 <uart_putchar_isr>:
    20001c30:	a9be7bfd 	stp	x29, x30, [sp, #-32]!
    20001c34:	910003fd 	mov	x29, sp
    20001c38:	d2800001 	mov	x1, #0x0                   	// #0
    20001c3c:	d2800002 	mov	x2, #0x0                   	// #0
    20001c40:	a90153f3 	stp	x19, x20, [sp, #16]
    20001c44:	d0000033 	adrp	x19, 20007000 <pt_config>
    20001c48:	12001c14 	and	w20, w0, #0xff
    20001c4c:	f940c263 	ldr	x3, [x19, #384]
    20001c50:	f9400060 	ldr	x0, [x3]
    20001c54:	f9400000 	ldr	x0, [x0]
    20001c58:	9400092a 	bl	20004100 <xQueueReceiveFromISR>
    20001c5c:	d2828301 	mov	x1, #0x1418                	// #5144
    20001c60:	f2bfc401 	movk	x1, #0xfe20, lsl #16
    20001c64:	d503201f 	nop
    20001c68:	b9400020 	ldr	w0, [x1]
    20001c6c:	372fffe0 	tbnz	w0, #5, 20001c68 <uart_putchar_isr+0x38>
    20001c70:	d2828000 	mov	x0, #0x1400                	// #5120
    20001c74:	f2bfc400 	movk	x0, #0xfe20, lsl #16
    20001c78:	b9000014 	str	w20, [x0]
    20001c7c:	d5033fdf 	isb
    20001c80:	f940c273 	ldr	x19, [x19, #384]
    20001c84:	d2800001 	mov	x1, #0x0                   	// #0
    20001c88:	f9400260 	ldr	x0, [x19]
    20001c8c:	a94153f3 	ldp	x19, x20, [sp, #16]
    20001c90:	a8c27bfd 	ldp	x29, x30, [sp], #32
    20001c94:	f9400000 	ldr	x0, [x0]
    20001c98:	1400079e 	b	20003b10 <xQueueGiveFromISR>
    20001c9c:	d503201f 	nop

0000000020001ca0 <uart_puts>:
    20001ca0:	a9be7bfd 	stp	x29, x30, [sp, #-32]!
    20001ca4:	910003fd 	mov	x29, sp
    20001ca8:	f9000bf3 	str	x19, [sp, #16]
    20001cac:	aa0003f3 	mov	x19, x0
    20001cb0:	39400000 	ldrb	w0, [x0]
    20001cb4:	340000c0 	cbz	w0, 20001ccc <uart_puts+0x2c>
    20001cb8:	91000673 	add	x19, x19, #0x1
    20001cbc:	d503201f 	nop
    20001cc0:	97ffffc0 	bl	20001bc0 <uart_putchar>
    20001cc4:	38401660 	ldrb	w0, [x19], #1
    20001cc8:	35ffffc0 	cbnz	w0, 20001cc0 <uart_puts+0x20>
    20001ccc:	f9400bf3 	ldr	x19, [sp, #16]
    20001cd0:	a8c27bfd 	ldp	x29, x30, [sp], #32
    20001cd4:	d65f03c0 	ret
    20001cd8:	d503201f 	nop
    20001cdc:	d503201f 	nop

0000000020001ce0 <uart_puthex>:
    20001ce0:	a9bd7bfd 	stp	x29, x30, [sp, #-48]!
    20001ce4:	910003fd 	mov	x29, sp
    20001ce8:	a90153f3 	stp	x19, x20, [sp, #16]
    20001cec:	aa0003f4 	mov	x20, x0
    20001cf0:	52800793 	mov	w19, #0x3c                  	// #60
    20001cf4:	f90013f5 	str	x21, [sp, #32]
    20001cf8:	b0000035 	adrp	x21, 20006000 <uxTimerGetReloadMode>
    20001cfc:	9112a2b5 	add	x21, x21, #0x4a8
    20001d00:	9ad32681 	lsr	x1, x20, x19
    20001d04:	51001273 	sub	w19, w19, #0x4
    20001d08:	92400c21 	and	x1, x1, #0xf
    20001d0c:	38616aa0 	ldrb	w0, [x21, x1]
    20001d10:	97ffffac 	bl	20001bc0 <uart_putchar>
    20001d14:	3100127f 	cmn	w19, #0x4
    20001d18:	54ffff41 	b.ne	20001d00 <uart_puthex+0x20>  // b.any
    20001d1c:	a94153f3 	ldp	x19, x20, [sp, #16]
    20001d20:	f94013f5 	ldr	x21, [sp, #32]
    20001d24:	a8c37bfd 	ldp	x29, x30, [sp], #48
    20001d28:	d65f03c0 	ret
    20001d2c:	d503201f 	nop

0000000020001d30 <uart_read_bytes>:
    20001d30:	a9bd7bfd 	stp	x29, x30, [sp, #-48]!
    20001d34:	d0000023 	adrp	x3, 20007000 <pt_config>
    20001d38:	910003fd 	mov	x29, sp
    20001d3c:	a9025bf5 	stp	x21, x22, [sp, #32]
    20001d40:	2a0103f6 	mov	w22, w1
    20001d44:	f940c075 	ldr	x21, [x3, #384]
    20001d48:	a90153f3 	stp	x19, x20, [sp, #16]
    20001d4c:	aa0003f3 	mov	x19, x0
    20001d50:	f94002a0 	ldr	x0, [x21]
    20001d54:	f9400400 	ldr	x0, [x0, #8]
    20001d58:	94000942 	bl	20004260 <uxQueueMessagesWaiting>
    20001d5c:	6b0002df 	cmp	w22, w0
    20001d60:	1a8082d6 	csel	w22, w22, w0, hi  // hi = pmore
    20001d64:	340001b6 	cbz	w22, 20001d98 <uart_read_bytes+0x68>
    20001d68:	510006d4 	sub	w20, w22, #0x1
    20001d6c:	91000660 	add	x0, x19, #0x1
    20001d70:	8b000294 	add	x20, x20, x0
    20001d74:	d503201f 	nop
    20001d78:	f94002a0 	ldr	x0, [x21]
    20001d7c:	aa1303e1 	mov	x1, x19
    20001d80:	92800002 	mov	x2, #0xffffffffffffffff    	// #-1
    20001d84:	91000673 	add	x19, x19, #0x1
    20001d88:	f9400400 	ldr	x0, [x0, #8]
    20001d8c:	94000795 	bl	20003be0 <xQueueReceive>
    20001d90:	eb14027f 	cmp	x19, x20
    20001d94:	54ffff21 	b.ne	20001d78 <uart_read_bytes+0x48>  // b.any
    20001d98:	2a1603e0 	mov	w0, w22
    20001d9c:	a94153f3 	ldp	x19, x20, [sp, #16]
    20001da0:	a9425bf5 	ldp	x21, x22, [sp, #32]
    20001da4:	a8c37bfd 	ldp	x29, x30, [sp], #48
    20001da8:	d65f03c0 	ret
    20001dac:	d503201f 	nop

0000000020001db0 <uart_init>:
    20001db0:	d2bfc402 	mov	x2, #0xfe200000            	// #4263510016
    20001db4:	a9bd7bfd 	stp	x29, x30, [sp, #-48]!
    20001db8:	910003fd 	mov	x29, sp
    20001dbc:	52800363 	mov	w3, #0x1b                  	// #27
    20001dc0:	d2801c81 	mov	x1, #0xe4                  	// #228
    20001dc4:	f2bfc401 	movk	x1, #0xfe20, lsl #16
    20001dc8:	5280ffee 	mov	w14, #0x7ff                 	// #2047
    20001dcc:	b9400040 	ldr	w0, [x2]
    20001dd0:	d282888d 	mov	x13, #0x1444                	// #5188
    20001dd4:	f2bfc40d 	movk	x13, #0xfe20, lsl #16
    20001dd8:	a90153f3 	stp	x19, x20, [sp, #16]
    20001ddc:	5280034c 	mov	w12, #0x1a                  	// #26
    20001de0:	d282848b 	mov	x11, #0x1424                	// #5156
    20001de4:	f2bfc40b 	movk	x11, #0xfe20, lsl #16
    20001de8:	5280006a 	mov	w10, #0x3                   	// #3
    20001dec:	d2828509 	mov	x9, #0x1428                	// #5160
    20001df0:	f2bfc409 	movk	x9, #0xfe20, lsl #16
    20001df4:	f90013f5 	str	x21, [sp, #32]
    20001df8:	52800c08 	mov	w8, #0x60                  	// #96
    20001dfc:	d2828587 	mov	x7, #0x142c                	// #5164
    20001e00:	f2bfc407 	movk	x7, #0xfe20, lsl #16
    20001e04:	121a6400 	and	w0, w0, #0xffffffc0
    20001e08:	2a030000 	orr	w0, w0, w3
    20001e0c:	52800206 	mov	w6, #0x10                  	// #16
    20001e10:	d2828705 	mov	x5, #0x1438                	// #5176
    20001e14:	f2bfc405 	movk	x5, #0xfe20, lsl #16
    20001e18:	b9000040 	str	w0, [x2]
    20001e1c:	52806024 	mov	w4, #0x301                 	// #769
    20001e20:	d2828603 	mov	x3, #0x1430                	// #5168
    20001e24:	f2bfc403 	movk	x3, #0xfe20, lsl #16
    20001e28:	b9400020 	ldr	w0, [x1]
    20001e2c:	121c6c00 	and	w0, w0, #0xfffffff0
    20001e30:	b9000020 	str	w0, [x1]
    20001e34:	b90001ae 	str	w14, [x13]
    20001e38:	b900016c 	str	w12, [x11]
    20001e3c:	b900012a 	str	w10, [x9]
    20001e40:	b90000e8 	str	w8, [x7]
    20001e44:	b90000a6 	str	w6, [x5]
    20001e48:	b9000064 	str	w4, [x3]
    20001e4c:	d5033fdf 	isb
    20001e50:	d0000034 	adrp	x20, 20007000 <pt_config>
    20001e54:	d2800200 	mov	x0, #0x10                  	// #16
    20001e58:	940010c2 	bl	20006160 <pvPortMalloc>
    20001e5c:	f940c295 	ldr	x21, [x20, #384]
    20001e60:	aa0003f3 	mov	x19, x0
    20001e64:	52800020 	mov	w0, #0x1                   	// #1
    20001e68:	f90002b3 	str	x19, [x21]
    20001e6c:	940006d1 	bl	200039b0 <xQueueCreateMutex>
    20001e70:	aa0003e3 	mov	x3, x0
    20001e74:	f94002b5 	ldr	x21, [x21]
    20001e78:	52800002 	mov	w2, #0x0                   	// #0
    20001e7c:	d2800021 	mov	x1, #0x1                   	// #1
    20001e80:	d2800200 	mov	x0, #0x10                  	// #16
    20001e84:	f9000263 	str	x3, [x19]
    20001e88:	94000626 	bl	20003720 <xQueueGenericCreate>
    20001e8c:	aa0003e4 	mov	x4, x0
    20001e90:	f940be83 	ldr	x3, [x20, #376]
    20001e94:	52800102 	mov	w2, #0x8                   	// #8
    20001e98:	52801401 	mov	w1, #0xa0                  	// #160
    20001e9c:	52801320 	mov	w0, #0x99                  	// #153
    20001ea0:	a94153f3 	ldp	x19, x20, [sp, #16]
    20001ea4:	f90006a4 	str	x4, [x21, #8]
    20001ea8:	f94013f5 	ldr	x21, [sp, #32]
    20001eac:	a8c37bfd 	ldp	x29, x30, [sp], #48
    20001eb0:	17fffeb4 	b	20001980 <isr_register>
	...

0000000020001ec0 <gpio_pin_init>:
    20001ec0:	529999a3 	mov	w3, #0xcccd                	// #52429
    20001ec4:	72b99983 	movk	w3, #0xcccc, lsl #16
    20001ec8:	d0000024 	adrp	x4, 20007000 <pt_config>
    20001ecc:	71003c1f 	cmp	w0, #0xf
    20001ed0:	f940d485 	ldr	x5, [x4, #424]
    20001ed4:	9ba37c03 	umull	x3, w0, w3
    20001ed8:	d363a866 	ubfx	x6, x3, #35, #8
    20001edc:	0b0608c3 	add	w3, w6, w6, lsl #2
    20001ee0:	f86678a5 	ldr	x5, [x5, x6, lsl #3]
    20001ee4:	4b030403 	sub	w3, w0, w3, lsl #1
    20001ee8:	0b030463 	add	w3, w3, w3, lsl #1
    20001eec:	b94000a6 	ldr	w6, [x5]
    20001ef0:	1ac32023 	lsl	w3, w1, w3
    20001ef4:	2a060063 	orr	w3, w3, w6
    20001ef8:	b90000a3 	str	w3, [x5]
    20001efc:	54000148 	b.hi	20001f24 <gpio_pin_init+0x64>  // b.pmore
    20001f00:	f940a084 	ldr	x4, [x4, #320]
    20001f04:	531f1800 	ubfiz	w0, w0, #1, #7
    20001f08:	1ac02042 	lsl	w2, w2, w0
    20001f0c:	f9400081 	ldr	x1, [x4]
    20001f10:	b9400020 	ldr	w0, [x1]
    20001f14:	2a000042 	orr	w2, w2, w0
    20001f18:	b9000022 	str	w2, [x1]
    20001f1c:	52800000 	mov	w0, #0x0                   	// #0
    20001f20:	d65f03c0 	ret
    20001f24:	51004001 	sub	w1, w0, #0x10
    20001f28:	71003c3f 	cmp	w1, #0xf
    20001f2c:	54000148 	b.hi	20001f54 <gpio_pin_init+0x94>  // b.pmore
    20001f30:	f940a084 	ldr	x4, [x4, #320]
    20001f34:	531f1821 	ubfiz	w1, w1, #1, #7
    20001f38:	1ac12042 	lsl	w2, w2, w1
    20001f3c:	f9400480 	ldr	x0, [x4, #8]
    20001f40:	b9400001 	ldr	w1, [x0]
    20001f44:	2a010042 	orr	w2, w2, w1
    20001f48:	b9000002 	str	w2, [x0]
    20001f4c:	52800000 	mov	w0, #0x0                   	// #0
    20001f50:	d65f03c0 	ret
    20001f54:	51008001 	sub	w1, w0, #0x20
    20001f58:	71003c3f 	cmp	w1, #0xf
    20001f5c:	54000189 	b.ls	20001f8c <gpio_pin_init+0xcc>  // b.plast
    20001f60:	5100c001 	sub	w1, w0, #0x30
    20001f64:	7100243f 	cmp	w1, #0x9
    20001f68:	54fffda8 	b.hi	20001f1c <gpio_pin_init+0x5c>  // b.pmore
    20001f6c:	f940a084 	ldr	x4, [x4, #320]
    20001f70:	531f1821 	ubfiz	w1, w1, #1, #7
    20001f74:	1ac12041 	lsl	w1, w2, w1
    20001f78:	f9400c80 	ldr	x0, [x4, #24]
    20001f7c:	b9400002 	ldr	w2, [x0]
    20001f80:	2a020021 	orr	w1, w1, w2
    20001f84:	b9000001 	str	w1, [x0]
    20001f88:	17ffffe5 	b	20001f1c <gpio_pin_init+0x5c>
    20001f8c:	f940a084 	ldr	x4, [x4, #320]
    20001f90:	531f1821 	ubfiz	w1, w1, #1, #7
    20001f94:	1ac12042 	lsl	w2, w2, w1
    20001f98:	f9400880 	ldr	x0, [x4, #16]
    20001f9c:	b9400001 	ldr	w1, [x0]
    20001fa0:	2a010042 	orr	w2, w2, w1
    20001fa4:	b9000002 	str	w2, [x0]
    20001fa8:	52800000 	mov	w0, #0x0                   	// #0
    20001fac:	d65f03c0 	ret

0000000020001fb0 <gpio_pin_set>:
    20001fb0:	51008002 	sub	w2, w0, #0x20
    20001fb4:	12001c00 	and	w0, w0, #0xff
    20001fb8:	7100645f 	cmp	w2, #0x19
    20001fbc:	d2800002 	mov	x2, #0x0                   	// #0
    20001fc0:	54000088 	b.hi	20001fd0 <gpio_pin_set+0x20>  // b.pmore
    20001fc4:	51008000 	sub	w0, w0, #0x20
    20001fc8:	d2800022 	mov	x2, #0x1                   	// #1
    20001fcc:	12001c00 	and	w0, w0, #0xff
    20001fd0:	7100043f 	cmp	w1, #0x1
    20001fd4:	54000160 	b.eq	20002000 <gpio_pin_set+0x50>  // b.none
    20001fd8:	35000121 	cbnz	w1, 20001ffc <gpio_pin_set+0x4c>
    20001fdc:	d0000023 	adrp	x3, 20007000 <pt_config>
    20001fe0:	52800021 	mov	w1, #0x1                   	// #1
    20001fe4:	f9409863 	ldr	x3, [x3, #304]
    20001fe8:	1ac02020 	lsl	w0, w1, w0
    20001fec:	f8627861 	ldr	x1, [x3, x2, lsl #3]
    20001ff0:	b9400022 	ldr	w2, [x1]
    20001ff4:	2a020000 	orr	w0, w0, w2
    20001ff8:	b9000020 	str	w0, [x1]
    20001ffc:	d65f03c0 	ret
    20002000:	b0000023 	adrp	x3, 20007000 <pt_config>
    20002004:	1ac02020 	lsl	w0, w1, w0
    20002008:	f940ac63 	ldr	x3, [x3, #344]
    2000200c:	f8627862 	ldr	x2, [x3, x2, lsl #3]
    20002010:	b9400041 	ldr	w1, [x2]
    20002014:	2a010000 	orr	w0, w0, w1
    20002018:	b9000040 	str	w0, [x2]
    2000201c:	d65f03c0 	ret

0000000020002020 <gpio_pin_read>:
    20002020:	51008001 	sub	w1, w0, #0x20
    20002024:	d2800002 	mov	x2, #0x0                   	// #0
    20002028:	7100643f 	cmp	w1, #0x19
    2000202c:	12001c00 	and	w0, w0, #0xff
    20002030:	54000088 	b.hi	20002040 <gpio_pin_read+0x20>  // b.pmore
    20002034:	51008000 	sub	w0, w0, #0x20
    20002038:	d2800022 	mov	x2, #0x1                   	// #1
    2000203c:	12001c00 	and	w0, w0, #0xff
    20002040:	b0000021 	adrp	x1, 20007000 <pt_config>
    20002044:	f9409c21 	ldr	x1, [x1, #312]
    20002048:	f8627821 	ldr	x1, [x1, x2, lsl #3]
    2000204c:	b9400021 	ldr	w1, [x1]
    20002050:	1ac02820 	asr	w0, w1, w0
    20002054:	12000000 	and	w0, w0, #0x1
    20002058:	d65f03c0 	ret
    2000205c:	00000000 	.inst	0x00000000 ; undefined

0000000020002060 <init_pt>:
    20002060:	d0002fe0 	adrp	x0, 20600000 <PT_BASE>
    20002064:	a9bf7bfd 	stp	x29, x30, [sp, #-16]!
    20002068:	d2802002 	mov	x2, #0x100                 	// #256
    2000206c:	910003fd 	mov	x29, sp
    20002070:	52800001 	mov	w1, #0x0                   	// #0
    20002074:	91000000 	add	x0, x0, #0x0
    20002078:	940000f2 	bl	20002440 <memset>
    2000207c:	90003000 	adrp	x0, 20602000 <l2pte>
    20002080:	d2a00042 	mov	x2, #0x20000               	// #131072
    20002084:	52800001 	mov	w1, #0x0                   	// #0
    20002088:	91000000 	add	x0, x0, #0x0
    2000208c:	940000ed 	bl	20002440 <memset>
    20002090:	f0002fe0 	adrp	x0, 20601000 <l1ptd_dummy>
    20002094:	91040000 	add	x0, x0, #0x100
    20002098:	a8c17bfd 	ldp	x29, x30, [sp], #16
    2000209c:	d1040000 	sub	x0, x0, #0x100
    200020a0:	d2802002 	mov	x2, #0x100                 	// #256
    200020a4:	52800001 	mov	w1, #0x0                   	// #0
    200020a8:	140000e6 	b	20002440 <memset>
    200020ac:	d503201f 	nop

00000000200020b0 <init_regs>:
    200020b0:	a9be7bfd 	stp	x29, x30, [sp, #-32]!
    200020b4:	910003fd 	mov	x29, sp
    200020b8:	f9000fff 	str	xzr, [sp, #24]
    200020bc:	f9400fe0 	ldr	x0, [sp, #24]
    200020c0:	d5181000 	msr	sctlr_el1, x0
    200020c4:	d5033fdf 	isb
    200020c8:	d508871f 	tlbi	vmalle1
    200020cc:	d508751f 	ic	iallu
    200020d0:	940000be 	bl	200023c8 <invalidate_dcache_all>
    200020d4:	d5033f9f 	dsb	sy
    200020d8:	d5033fdf 	isb
    200020dc:	d2888000 	mov	x0, #0x4400                	// #17408
    200020e0:	f2bff760 	movk	x0, #0xffbb, lsl #16
    200020e4:	f9000fe0 	str	x0, [sp, #24]
    200020e8:	f9400fe0 	ldr	x0, [sp, #24]
    200020ec:	d518a200 	msr	mair_el1, x0
    200020f0:	d5033fdf 	isb
    200020f4:	d0002fe0 	adrp	x0, 20600000 <PT_BASE>
    200020f8:	91000000 	add	x0, x0, #0x0
    200020fc:	d5182000 	msr	ttbr0_el1, x0
    20002100:	f0002fe0 	adrp	x0, 20601000 <l1ptd_dummy>
    20002104:	91040000 	add	x0, x0, #0x100
    20002108:	d1040000 	sub	x0, x0, #0x100
    2000210c:	d5182020 	msr	ttbr1_el1, x0
    20002110:	d5033fdf 	isb
    20002114:	d284a3a0 	mov	x0, #0x251d                	// #9501
    20002118:	f2a4b3a0 	movk	x0, #0x259d, lsl #16
    2000211c:	f2c00e20 	movk	x0, #0x71, lsl #32
    20002120:	f9000fe0 	str	x0, [sp, #24]
    20002124:	f9400fe0 	ldr	x0, [sp, #24]
    20002128:	d5182040 	msr	tcr_el1, x0
    2000212c:	d5033fdf 	isb
    20002130:	a8c27bfd 	ldp	x29, x30, [sp], #32
    20002134:	d65f03c0 	ret
    20002138:	d503201f 	nop
    2000213c:	d503201f 	nop

0000000020002140 <set_pt>:
    20002140:	d2a80003 	mov	x3, #0x40000000            	// #1073741824
    20002144:	9000300a 	adrp	x10, 20602000 <l2pte>
    20002148:	91000146 	add	x6, x10, #0x0
    2000214c:	d0002feb 	adrp	x11, 20600000 <PT_BASE>
    20002150:	91000167 	add	x7, x11, #0x0
    20002154:	d10083ff 	sub	sp, sp, #0x20
    20002158:	aa0003e9 	mov	x9, x0
    2000215c:	aa0303e8 	mov	x8, x3
    20002160:	d2800005 	mov	x5, #0x0                   	// #0
    20002164:	d280c024 	mov	x4, #0x601                 	// #1537
    20002168:	927454c2 	and	x2, x6, #0x3fffff000
    2000216c:	d36284a0 	lsl	x0, x5, #30
    20002170:	b2400442 	orr	x2, x2, #0x3
    20002174:	aa0603e1 	mov	x1, x6
    20002178:	f82578e2 	str	x2, [x7, x5, lsl #3]
    2000217c:	d503201f 	nop
    20002180:	aa040002 	orr	x2, x0, x4
    20002184:	91480000 	add	x0, x0, #0x200, lsl #12
    20002188:	eb00007f 	cmp	x3, x0
    2000218c:	f9000fe2 	str	x2, [sp, #24]
    20002190:	f9400fe2 	ldr	x2, [sp, #24]
    20002194:	f8008422 	str	x2, [x1], #8
    20002198:	54ffff41 	b.ne	20002180 <set_pt+0x40>  // b.any
    2000219c:	910004a5 	add	x5, x5, #0x1
    200021a0:	914004c6 	add	x6, x6, #0x1, lsl #12
    200021a4:	f10080bf 	cmp	x5, #0x20
    200021a8:	8b080063 	add	x3, x3, x8
    200021ac:	54fffde1 	b.ne	20002168 <set_pt+0x28>  // b.any
    200021b0:	aa0903e3 	mov	x3, x9
    200021b4:	91000167 	add	x7, x11, #0x0
    200021b8:	91000146 	add	x6, x10, #0x0
    200021bc:	91028129 	add	x9, x9, #0xa0
    200021c0:	52808028 	mov	w8, #0x401                 	// #1025
    200021c4:	f9400061 	ldr	x1, [x3]
    200021c8:	d35efc21 	lsr	x1, x1, #30
    200021cc:	8b0130c0 	add	x0, x6, x1, lsl #12
    200021d0:	92745400 	and	x0, x0, #0x3fffff000
    200021d4:	b2400400 	orr	x0, x0, #0x3
    200021d8:	f82178e0 	str	x0, [x7, x1, lsl #3]
    200021dc:	a9400061 	ldp	x1, x0, [x3]
    200021e0:	d355fc21 	lsr	x1, x1, #21
    200021e4:	d355fc00 	lsr	x0, x0, #21
    200021e8:	f90007e1 	str	x1, [sp, #8]
    200021ec:	f9000be0 	str	x0, [sp, #16]
    200021f0:	f9400be0 	ldr	x0, [sp, #16]
    200021f4:	b4000340 	cbz	x0, 2000225c <set_pt+0x11c>
    200021f8:	39406861 	ldrb	w1, [x3, #26]
    200021fc:	d2800002 	mov	x2, #0x0                   	// #0
    20002200:	79403065 	ldrh	w5, [x3, #24]
    20002204:	39406c60 	ldrb	w0, [x3, #27]
    20002208:	531a6421 	lsl	w1, w1, #6
    2000220c:	2a052025 	orr	w5, w1, w5, lsl #8
    20002210:	2a000900 	orr	w0, w8, w0, lsl #2
    20002214:	2a0000a5 	orr	w5, w5, w0
    20002218:	93407ca5 	sxtw	x5, w5
    2000221c:	d503201f 	nop
    20002220:	f94007e1 	ldr	x1, [sp, #8]
    20002224:	f9400860 	ldr	x0, [x3, #16]
    20002228:	8b020021 	add	x1, x1, x2
    2000222c:	d36ba821 	lsl	x1, x1, #21
    20002230:	aa00d420 	orr	x0, x1, x0, lsl #53
    20002234:	aa050000 	orr	x0, x0, x5
    20002238:	f9000fe0 	str	x0, [sp, #24]
    2000223c:	f94007e0 	ldr	x0, [sp, #8]
    20002240:	f9400fe4 	ldr	x4, [sp, #24]
    20002244:	f9400be1 	ldr	x1, [sp, #16]
    20002248:	8b020000 	add	x0, x0, x2
    2000224c:	91000442 	add	x2, x2, #0x1
    20002250:	f82078c4 	str	x4, [x6, x0, lsl #3]
    20002254:	eb02003f 	cmp	x1, x2
    20002258:	54fffe48 	b.hi	20002220 <set_pt+0xe0>  // b.pmore
    2000225c:	91008063 	add	x3, x3, #0x20
    20002260:	eb03013f 	cmp	x9, x3
    20002264:	54fffb01 	b.ne	200021c4 <set_pt+0x84>  // b.any
    20002268:	910083ff 	add	sp, sp, #0x20
    2000226c:	d65f03c0 	ret

0000000020002270 <update_pt>:
    20002270:	b0000020 	adrp	x0, 20007000 <pt_config>
    20002274:	a9be7bfd 	stp	x29, x30, [sp, #-32]!
    20002278:	910003fd 	mov	x29, sp
    2000227c:	f940d800 	ldr	x0, [x0, #432]
    20002280:	97ffffb0 	bl	20002140 <set_pt>
    20002284:	d2800000 	mov	x0, #0x0                   	// #0
    20002288:	d5182000 	msr	ttbr0_el1, x0
    2000228c:	d0002fe0 	adrp	x0, 20600000 <PT_BASE>
    20002290:	91000000 	add	x0, x0, #0x0
    20002294:	d5182000 	msr	ttbr0_el1, x0
    20002298:	d5033fdf 	isb
    2000229c:	d5381000 	mrs	x0, sctlr_el1
    200022a0:	f9000fe0 	str	x0, [sp, #24]
    200022a4:	d28203a1 	mov	x1, #0x101d                	// #4125
    200022a8:	f9400fe0 	ldr	x0, [sp, #24]
    200022ac:	aa010000 	orr	x0, x0, x1
    200022b0:	f9000fe0 	str	x0, [sp, #24]
    200022b4:	f9400fe0 	ldr	x0, [sp, #24]
    200022b8:	926cf800 	and	x0, x0, #0xfffffffffff7ffff
    200022bc:	f9000fe0 	str	x0, [sp, #24]
    200022c0:	f9400fe0 	ldr	x0, [sp, #24]
    200022c4:	d5181000 	msr	sctlr_el1, x0
    200022c8:	d5033f9f 	dsb	sy
    200022cc:	d5033fdf 	isb
    200022d0:	a8c27bfd 	ldp	x29, x30, [sp], #32
    200022d4:	d65f03c0 	ret
    200022d8:	d503201f 	nop
    200022dc:	d503201f 	nop

00000000200022e0 <configure_mmu>:
    200022e0:	a9bf7bfd 	stp	x29, x30, [sp, #-16]!
    200022e4:	910003fd 	mov	x29, sp
    200022e8:	97ffff72 	bl	200020b0 <init_regs>
    200022ec:	97ffff5d 	bl	20002060 <init_pt>
    200022f0:	a8c17bfd 	ldp	x29, x30, [sp], #16
    200022f4:	17ffffdf 	b	20002270 <update_pt>

00000000200022f8 <__asm_dcache_level>:
    200022f8:	d37ff80c 	lsl	x12, x0, #1
    200022fc:	d51a000c 	msr	csselr_el1, x12
    20002300:	d5033fdf 	isb
    20002304:	d5390006 	mrs	x6, ccsidr_el1
    20002308:	924008c2 	and	x2, x6, #0x7
    2000230c:	91001042 	add	x2, x2, #0x4
    20002310:	d2807fe3 	mov	x3, #0x3ff                 	// #1023
    20002314:	8a460c63 	and	x3, x3, x6, lsr #3
    20002318:	5ac01065 	clz	w5, w3
    2000231c:	d28fffe4 	mov	x4, #0x7fff                	// #32767
    20002320:	8a463484 	and	x4, x4, x6, lsr #13

0000000020002324 <loop_set>:
    20002324:	aa0303e6 	mov	x6, x3

0000000020002328 <loop_way>:
    20002328:	9ac520c7 	lsl	x7, x6, x5
    2000232c:	aa070189 	orr	x9, x12, x7
    20002330:	9ac22087 	lsl	x7, x4, x2
    20002334:	aa070129 	orr	x9, x9, x7
    20002338:	36000061 	tbz	w1, #0, 20002344 <loop_way+0x1c>
    2000233c:	d5087649 	dc	isw, x9
    20002340:	14000002 	b	20002348 <loop_way+0x20>
    20002344:	d5087e49 	dc	cisw, x9
    20002348:	f10004c6 	subs	x6, x6, #0x1
    2000234c:	54fffeea 	b.ge	20002328 <loop_way>  // b.tcont
    20002350:	f1000484 	subs	x4, x4, #0x1
    20002354:	54fffe8a 	b.ge	20002324 <loop_set>  // b.tcont
    20002358:	d65f03c0 	ret

000000002000235c <__asm_dcache_all>:
    2000235c:	aa0003e1 	mov	x1, x0
    20002360:	d5033f9f 	dsb	sy
    20002364:	d539002a 	mrs	x10, clidr_el1
    20002368:	d358fd4b 	lsr	x11, x10, #24
    2000236c:	9240096b 	and	x11, x11, #0x7
    20002370:	b400024b 	cbz	x11, 200023b8 <finished>
    20002374:	aa1e03ef 	mov	x15, x30
    20002378:	d2800000 	mov	x0, #0x0                   	// #0

000000002000237c <loop_level>:
    2000237c:	d37ff80c 	lsl	x12, x0, #1
    20002380:	8b00018c 	add	x12, x12, x0
    20002384:	9acc254c 	lsr	x12, x10, x12
    20002388:	9240098c 	and	x12, x12, #0x7
    2000238c:	f100099f 	cmp	x12, #0x2
    20002390:	5400004b 	b.lt	20002398 <skip>  // b.tstop
    20002394:	97ffffd9 	bl	200022f8 <__asm_dcache_level>

0000000020002398 <skip>:
    20002398:	91000400 	add	x0, x0, #0x1
    2000239c:	eb00017f 	cmp	x11, x0
    200023a0:	54fffeec 	b.gt	2000237c <loop_level>
    200023a4:	d2800000 	mov	x0, #0x0                   	// #0
    200023a8:	d51a0000 	msr	csselr_el1, x0
    200023ac:	d5033f9f 	dsb	sy
    200023b0:	d5033fdf 	isb
    200023b4:	aa0f03fe 	mov	x30, x15

00000000200023b8 <finished>:
    200023b8:	d65f03c0 	ret

00000000200023bc <flush_dcache_all>:
    200023bc:	d2800000 	mov	x0, #0x0                   	// #0
    200023c0:	17ffffe7 	b	2000235c <__asm_dcache_all>
    200023c4:	d65f03c0 	ret

00000000200023c8 <invalidate_dcache_all>:
    200023c8:	d2800020 	mov	x0, #0x1                   	// #1
    200023cc:	17ffffe4 	b	2000235c <__asm_dcache_all>
    200023d0:	d65f03c0 	ret

00000000200023d4 <flush_dcache_range>:
    200023d4:	d53b0023 	mrs	x3, ctr_el0
    200023d8:	d350fc63 	lsr	x3, x3, #16
    200023dc:	92400c63 	and	x3, x3, #0xf
    200023e0:	d2800082 	mov	x2, #0x4                   	// #4
    200023e4:	9ac32042 	lsl	x2, x2, x3
    200023e8:	d1000443 	sub	x3, x2, #0x1
    200023ec:	8a230000 	bic	x0, x0, x3
    200023f0:	d50b7e20 	dc	civac, x0
    200023f4:	8b020000 	add	x0, x0, x2
    200023f8:	eb01001f 	cmp	x0, x1
    200023fc:	54ffffa3 	b.cc	200023f0 <flush_dcache_range+0x1c>  // b.lo, b.ul, b.last
    20002400:	d5033f9f 	dsb	sy
    20002404:	d65f03c0 	ret

0000000020002408 <invalidate_dcache_range>:
    20002408:	d53b0023 	mrs	x3, ctr_el0
    2000240c:	d3504c63 	ubfx	x3, x3, #16, #4
    20002410:	d2800082 	mov	x2, #0x4                   	// #4
    20002414:	9ac32042 	lsl	x2, x2, x3
    20002418:	d1000443 	sub	x3, x2, #0x1
    2000241c:	8a230000 	bic	x0, x0, x3
    20002420:	d5087620 	dc	ivac, x0
    20002424:	8b020000 	add	x0, x0, x2
    20002428:	eb01001f 	cmp	x0, x1
    2000242c:	54ffffa3 	b.cc	20002420 <invalidate_dcache_range+0x18>  // b.lo, b.ul, b.last
    20002430:	d5033f9f 	dsb	sy
    20002434:	d65f03c0 	ret
	...

0000000020002440 <memset>:
    20002440:	b40006e2 	cbz	x2, 2000251c <memset+0xdc>
    20002444:	12001c23 	and	w3, w1, #0xff
    20002448:	8b020004 	add	x4, x0, x2
    2000244c:	f100085f 	cmp	x2, #0x2
    20002450:	39000003 	strb	w3, [x0]
    20002454:	381ff083 	sturb	w3, [x4, #-1]
    20002458:	54000629 	b.ls	2000251c <memset+0xdc>  // b.plast
    2000245c:	39000403 	strb	w3, [x0, #1]
    20002460:	f100185f 	cmp	x2, #0x6
    20002464:	39000803 	strb	w3, [x0, #2]
    20002468:	381fd083 	sturb	w3, [x4, #-3]
    2000246c:	381fe083 	sturb	w3, [x4, #-2]
    20002470:	54000569 	b.ls	2000251c <memset+0xdc>  // b.plast
    20002474:	39000c03 	strb	w3, [x0, #3]
    20002478:	f100205f 	cmp	x2, #0x8
    2000247c:	381fc083 	sturb	w3, [x4, #-4]
    20002480:	540004e9 	b.ls	2000251c <memset+0xdc>  // b.plast
    20002484:	12001c21 	and	w1, w1, #0xff
    20002488:	3200c3e4 	mov	w4, #0x1010101             	// #16843009
    2000248c:	cb0003e3 	neg	x3, x0
    20002490:	92400463 	and	x3, x3, #0x3
    20002494:	1b047c21 	mul	w1, w1, w4
    20002498:	cb030042 	sub	x2, x2, x3
    2000249c:	8b030005 	add	x5, x0, x3
    200024a0:	927ef442 	and	x2, x2, #0xfffffffffffffffc
    200024a4:	8b0200a6 	add	x6, x5, x2
    200024a8:	b8236801 	str	w1, [x0, x3]
    200024ac:	f100205f 	cmp	x2, #0x8
    200024b0:	b81fc0c1 	stur	w1, [x6, #-4]
    200024b4:	54000349 	b.ls	2000251c <memset+0xdc>  // b.plast
    200024b8:	290084a1 	stp	w1, w1, [x5, #4]
    200024bc:	f100605f 	cmp	x2, #0x18
    200024c0:	293e84c1 	stp	w1, w1, [x6, #-12]
    200024c4:	540002c9 	b.ls	2000251c <memset+0xdc>  // b.plast
    200024c8:	927e00a3 	and	x3, x5, #0x4
    200024cc:	290184a1 	stp	w1, w1, [x5, #12]
    200024d0:	2a0103e4 	mov	w4, w1
    200024d4:	91006063 	add	x3, x3, #0x18
    200024d8:	290284a1 	stp	w1, w1, [x5, #20]
    200024dc:	aa018084 	orr	x4, x4, x1, lsl #32
    200024e0:	cb030042 	sub	x2, x2, x3
    200024e4:	293c84c1 	stp	w1, w1, [x6, #-28]
    200024e8:	8b0300a3 	add	x3, x5, x3
    200024ec:	f1007c5f 	cmp	x2, #0x1f
    200024f0:	293d84c1 	stp	w1, w1, [x6, #-20]
    200024f4:	54000149 	b.ls	2000251c <memset+0xdc>  // b.plast
    200024f8:	d1008041 	sub	x1, x2, #0x20
    200024fc:	927be821 	and	x1, x1, #0xffffffffffffffe0
    20002500:	91008021 	add	x1, x1, #0x20
    20002504:	8b010061 	add	x1, x3, x1
    20002508:	a9001064 	stp	x4, x4, [x3]
    2000250c:	a9011064 	stp	x4, x4, [x3, #16]
    20002510:	91008063 	add	x3, x3, #0x20
    20002514:	eb01007f 	cmp	x3, x1
    20002518:	54ffff81 	b.ne	20002508 <memset+0xc8>  // b.any
    2000251c:	d65f03c0 	ret

0000000020002520 <memcpy>:
    20002520:	f240043f 	tst	x1, #0x3
    20002524:	54001580 	b.eq	200027d4 <memcpy+0x2b4>  // b.none
    20002528:	b4000942 	cbz	x2, 20002650 <memcpy+0x130>
    2000252c:	aa0003e3 	mov	x3, x0
    20002530:	14000002 	b	20002538 <memcpy+0x18>
    20002534:	b40008e2 	cbz	x2, 20002650 <memcpy+0x130>
    20002538:	38401424 	ldrb	w4, [x1], #1
    2000253c:	d1000442 	sub	x2, x2, #0x1
    20002540:	f240043f 	tst	x1, #0x3
    20002544:	38001464 	strb	w4, [x3], #1
    20002548:	54ffff61 	b.ne	20002534 <memcpy+0x14>  // b.any
    2000254c:	f2400464 	ands	x4, x3, #0x3
    20002550:	54000820 	b.eq	20002654 <memcpy+0x134>  // b.none
    20002554:	f1007c5f 	cmp	x2, #0x1f
    20002558:	54000509 	b.ls	200025f8 <memcpy+0xd8>  // b.plast
    2000255c:	f100089f 	cmp	x4, #0x2
    20002560:	39400025 	ldrb	w5, [x1]
    20002564:	b9400029 	ldr	w9, [x1]
    20002568:	54000fa0 	b.eq	2000275c <memcpy+0x23c>  // b.none
    2000256c:	f1000c9f 	cmp	x4, #0x3
    20002570:	54000b80 	b.eq	200026e0 <memcpy+0x1c0>  // b.none
    20002574:	79400026 	ldrh	w6, [x1]
    20002578:	d100504a 	sub	x10, x2, #0x14
    2000257c:	aa0303eb 	mov	x11, x3
    20002580:	927ced48 	and	x8, x10, #0xfffffffffffffff0
    20002584:	91000c2c 	add	x12, x1, #0x3
    20002588:	39400825 	ldrb	w5, [x1, #2]
    2000258c:	91004d08 	add	x8, x8, #0x13
    20002590:	d344fd4a 	lsr	x10, x10, #4
    20002594:	8b080068 	add	x8, x3, x8
    20002598:	aa0c03e4 	mov	x4, x12
    2000259c:	78003566 	strh	w6, [x11], #3
    200025a0:	aa0b03e1 	mov	x1, x11
    200025a4:	39000865 	strb	w5, [x3, #2]
    200025a8:	b8401086 	ldur	w6, [x4, #1]
    200025ac:	91004084 	add	x4, x4, #0x10
    200025b0:	b85f5085 	ldur	w5, [x4, #-11]
    200025b4:	b85f9083 	ldur	w3, [x4, #-7]
    200025b8:	138960c7 	extr	w7, w6, w9, #24
    200025bc:	b85fd089 	ldur	w9, [x4, #-3]
    200025c0:	138660a6 	extr	w6, w5, w6, #24
    200025c4:	13856065 	extr	w5, w3, w5, #24
    200025c8:	29001827 	stp	w7, w6, [x1]
    200025cc:	13836123 	extr	w3, w9, w3, #24
    200025d0:	29010c25 	stp	w5, w3, [x1, #8]
    200025d4:	91004021 	add	x1, x1, #0x10
    200025d8:	eb01011f 	cmp	x8, x1
    200025dc:	54fffe61 	b.ne	200025a8 <memcpy+0x88>  // b.any
    200025e0:	91000541 	add	x1, x10, #0x1
    200025e4:	d1004c42 	sub	x2, x2, #0x13
    200025e8:	d37cec21 	lsl	x1, x1, #4
    200025ec:	cb0a1042 	sub	x2, x2, x10, lsl #4
    200025f0:	8b010163 	add	x3, x11, x1
    200025f4:	8b010181 	add	x1, x12, x1
    200025f8:	927d0047 	and	x7, x2, #0x8
    200025fc:	927e0046 	and	x6, x2, #0x4
    20002600:	927f0045 	and	x5, x2, #0x2
    20002604:	92400044 	and	x4, x2, #0x1
    20002608:	36200ee2 	tbz	w2, #4, 200027e4 <memcpy+0x2c4>
    2000260c:	f9400428 	ldr	x8, [x1, #8]
    20002610:	aa0303e2 	mov	x2, x3
    20002614:	f8410429 	ldr	x9, [x1], #16
    20002618:	f8010449 	str	x9, [x2], #16
    2000261c:	f9000468 	str	x8, [x3, #8]
    20002620:	b4000067 	cbz	x7, 2000262c <memcpy+0x10c>
    20002624:	f8408423 	ldr	x3, [x1], #8
    20002628:	f8008443 	str	x3, [x2], #8
    2000262c:	b4000066 	cbz	x6, 20002638 <memcpy+0x118>
    20002630:	b8404423 	ldr	w3, [x1], #4
    20002634:	b8004443 	str	w3, [x2], #4
    20002638:	b4000065 	cbz	x5, 20002644 <memcpy+0x124>
    2000263c:	78402423 	ldrh	w3, [x1], #2
    20002640:	78002443 	strh	w3, [x2], #2
    20002644:	b4000064 	cbz	x4, 20002650 <memcpy+0x130>
    20002648:	39400021 	ldrb	w1, [x1]
    2000264c:	39000041 	strb	w1, [x2]
    20002650:	d65f03c0 	ret
    20002654:	f1003c5f 	cmp	x2, #0xf
    20002658:	54000c29 	b.ls	200027dc <memcpy+0x2bc>  // b.plast
    2000265c:	d1004049 	sub	x9, x2, #0x10
    20002660:	aa0103e4 	mov	x4, x1
    20002664:	927ced29 	and	x9, x9, #0xfffffffffffffff0
    20002668:	91004129 	add	x9, x9, #0x10
    2000266c:	8b090068 	add	x8, x3, x9
    20002670:	29401c85 	ldp	w5, w7, [x4]
    20002674:	91004084 	add	x4, x4, #0x10
    20002678:	b85f8086 	ldur	w6, [x4, #-8]
    2000267c:	29001c65 	stp	w5, w7, [x3]
    20002680:	91004063 	add	x3, x3, #0x10
    20002684:	b85fc085 	ldur	w5, [x4, #-4]
    20002688:	b81f8066 	stur	w6, [x3, #-8]
    2000268c:	b81fc065 	stur	w5, [x3, #-4]
    20002690:	eb08007f 	cmp	x3, x8
    20002694:	54fffee1 	b.ne	20002670 <memcpy+0x150>  // b.any
    20002698:	92400c42 	and	x2, x2, #0xf
    2000269c:	8b090021 	add	x1, x1, x9
    200026a0:	927e0045 	and	x5, x2, #0x4
    200026a4:	927f0044 	and	x4, x2, #0x2
    200026a8:	92400043 	and	x3, x2, #0x1
    200026ac:	36180062 	tbz	w2, #3, 200026b8 <memcpy+0x198>
    200026b0:	f8408422 	ldr	x2, [x1], #8
    200026b4:	f8008502 	str	x2, [x8], #8
    200026b8:	b4000065 	cbz	x5, 200026c4 <memcpy+0x1a4>
    200026bc:	b8404422 	ldr	w2, [x1], #4
    200026c0:	b8004502 	str	w2, [x8], #4
    200026c4:	b4000064 	cbz	x4, 200026d0 <memcpy+0x1b0>
    200026c8:	78402422 	ldrh	w2, [x1], #2
    200026cc:	78002502 	strh	w2, [x8], #2
    200026d0:	b4fffc03 	cbz	x3, 20002650 <memcpy+0x130>
    200026d4:	39400021 	ldrb	w1, [x1]
    200026d8:	39000101 	strb	w1, [x8]
    200026dc:	d65f03c0 	ret
    200026e0:	d100504b 	sub	x11, x2, #0x14
    200026e4:	aa0303ec 	mov	x12, x3
    200026e8:	927ced6a 	and	x10, x11, #0xfffffffffffffff0
    200026ec:	91000421 	add	x1, x1, #0x1
    200026f0:	9100454a 	add	x10, x10, #0x11
    200026f4:	d344fd6b 	lsr	x11, x11, #4
    200026f8:	38001585 	strb	w5, [x12], #1
    200026fc:	8b0a006a 	add	x10, x3, x10
    20002700:	aa0103e4 	mov	x4, x1
    20002704:	aa0c03e3 	mov	x3, x12
    20002708:	b8403087 	ldur	w7, [x4, #3]
    2000270c:	91004084 	add	x4, x4, #0x10
    20002710:	b85f7086 	ldur	w6, [x4, #-9]
    20002714:	b85fb085 	ldur	w5, [x4, #-5]
    20002718:	138920e8 	extr	w8, w7, w9, #8
    2000271c:	b85ff089 	ldur	w9, [x4, #-1]
    20002720:	138720c7 	extr	w7, w6, w7, #8
    20002724:	138620a6 	extr	w6, w5, w6, #8
    20002728:	29001c68 	stp	w8, w7, [x3]
    2000272c:	13852125 	extr	w5, w9, w5, #8
    20002730:	29011466 	stp	w6, w5, [x3, #8]
    20002734:	91004063 	add	x3, x3, #0x10
    20002738:	eb0a007f 	cmp	x3, x10
    2000273c:	54fffe61 	b.ne	20002708 <memcpy+0x1e8>  // b.any
    20002740:	91000564 	add	x4, x11, #0x1
    20002744:	d1004442 	sub	x2, x2, #0x11
    20002748:	d37cec84 	lsl	x4, x4, #4
    2000274c:	cb0b1042 	sub	x2, x2, x11, lsl #4
    20002750:	8b040183 	add	x3, x12, x4
    20002754:	8b040021 	add	x1, x1, x4
    20002758:	17ffffa8 	b	200025f8 <memcpy+0xd8>
    2000275c:	78402424 	ldrh	w4, [x1], #2
    20002760:	d100504c 	sub	x12, x2, #0x14
    20002764:	927ced8b 	and	x11, x12, #0xfffffffffffffff0
    20002768:	d344fd8c 	lsr	x12, x12, #4
    2000276c:	9100496b 	add	x11, x11, #0x12
    20002770:	8b0b006b 	add	x11, x3, x11
    20002774:	aa0103e5 	mov	x5, x1
    20002778:	78002464 	strh	w4, [x3], #2
    2000277c:	aa0303e4 	mov	x4, x3
    20002780:	b84020a8 	ldur	w8, [x5, #2]
    20002784:	910040a5 	add	x5, x5, #0x10
    20002788:	b85f60a7 	ldur	w7, [x5, #-10]
    2000278c:	b85fa0a6 	ldur	w6, [x5, #-6]
    20002790:	1389410a 	extr	w10, w8, w9, #16
    20002794:	b85fe0a9 	ldur	w9, [x5, #-2]
    20002798:	138840e8 	extr	w8, w7, w8, #16
    2000279c:	138740c7 	extr	w7, w6, w7, #16
    200027a0:	2900208a 	stp	w10, w8, [x4]
    200027a4:	13864126 	extr	w6, w9, w6, #16
    200027a8:	29011887 	stp	w7, w6, [x4, #8]
    200027ac:	91004084 	add	x4, x4, #0x10
    200027b0:	eb04017f 	cmp	x11, x4
    200027b4:	54fffe61 	b.ne	20002780 <memcpy+0x260>  // b.any
    200027b8:	91000584 	add	x4, x12, #0x1
    200027bc:	d1004842 	sub	x2, x2, #0x12
    200027c0:	d37cec84 	lsl	x4, x4, #4
    200027c4:	cb0c1042 	sub	x2, x2, x12, lsl #4
    200027c8:	8b040063 	add	x3, x3, x4
    200027cc:	8b040021 	add	x1, x1, x4
    200027d0:	17ffff8a 	b	200025f8 <memcpy+0xd8>
    200027d4:	aa0003e3 	mov	x3, x0
    200027d8:	17ffff5d 	b	2000254c <memcpy+0x2c>
    200027dc:	aa0303e8 	mov	x8, x3
    200027e0:	17ffffb0 	b	200026a0 <memcpy+0x180>
    200027e4:	aa0303e2 	mov	x2, x3
    200027e8:	17ffff8e 	b	20002620 <memcpy+0x100>
    200027ec:	00000000 	.inst	0x00000000 ; undefined

00000000200027f0 <pxPortInitialiseStack>:
    200027f0:	5282424e 	mov	w14, #0x1212                	// #4626
    200027f4:	aa0003e3 	mov	x3, x0
    200027f8:	a9bd7bfd 	stp	x29, x30, [sp, #-48]!
    200027fc:	33103dce 	bfi	w14, w14, #16, #16
    20002800:	910003fd 	mov	x29, sp
    20002804:	52828290 	mov	w16, #0x1414                	// #5140
    20002808:	5282e2f1 	mov	w17, #0x1717                	// #5911
    2000280c:	5282c2d2 	mov	w18, #0x1616                	// #5654
    20002810:	33103e10 	bfi	w16, w16, #16, #16
    20002814:	5282a2af 	mov	w15, #0x1515                	// #5397
    20002818:	5283233e 	mov	w30, #0x1919                	// #6425
    2000281c:	33103e31 	bfi	w17, w17, #16, #16
    20002820:	a90153f3 	stp	x19, x20, [sp, #16]
    20002824:	52842433 	mov	w19, #0x2121                	// #8481
    20002828:	33103e52 	bfi	w18, w18, #16, #16
    2000282c:	5281212d 	mov	w13, #0x909                 	// #2313
    20002830:	52826264 	mov	w4, #0x1313                	// #4883
    20002834:	33103def 	bfi	w15, w15, #16, #16
    20002838:	5280a0ac 	mov	w12, #0x505                 	// #1285
    2000283c:	52846465 	mov	w5, #0x2323                	// #8995
    20002840:	a9025bf5 	stp	x21, x22, [sp, #32]
    20002844:	33103fde 	bfi	w30, w30, #16, #16
    20002848:	5284a4a6 	mov	w6, #0x2525                	// #9509
    2000284c:	33103e73 	bfi	w19, w19, #16, #16
    20002850:	52848487 	mov	w7, #0x2424                	// #9252
    20002854:	5284e4e8 	mov	w8, #0x2727                	// #10023
    20002858:	33103dad 	bfi	w13, w13, #16, #16
    2000285c:	5284c4c9 	mov	w9, #0x2626                	// #9766
    20002860:	5285252a 	mov	w10, #0x2929                	// #10537
    20002864:	2932386e 	stp	w14, w14, [x3, #-112]
    20002868:	b205c7ee 	mov	x14, #0x1818181818181818    	// #1736164148113840152
    2000286c:	33103c84 	bfi	w4, w4, #16, #16
    20002870:	5285050b 	mov	w11, #0x2828                	// #10280
    20002874:	33103d8c 	bfi	w12, w12, #16, #16
    20002878:	b207c7f6 	mov	x22, #0x606060606060606     	// #434041037028460038
    2000287c:	33103ca5 	bfi	w5, w5, #16, #16
    20002880:	b205c3e0 	mov	x0, #0x808080808080808     	// #578721382704613384
    20002884:	f816006e 	stur	x14, [x3, #-160]
    20002888:	33103cc6 	bfi	w6, w6, #16, #16
    2000288c:	b203c3ee 	mov	x14, #0x2020202020202020    	// #2314885530818453536
    20002890:	292e4872 	stp	w18, w18, [x3, #-144]
    20002894:	33103ce7 	bfi	w7, w7, #16, #16
    20002898:	b200cbf2 	mov	x18, #0x707070707070707     	// #506381209866536711
    2000289c:	292f4471 	stp	w17, w17, [x3, #-136]
    200028a0:	33103d08 	bfi	w8, w8, #16, #16
    200028a4:	b204c3f1 	mov	x17, #0x1010101010101010    	// #1157442765409226768
    200028a8:	29304070 	stp	w16, w16, [x3, #-128]
    200028ac:	33103d29 	bfi	w9, w9, #16, #16
    200028b0:	b200e3f0 	mov	x16, #0x1111111111111111    	// #1229782938247303441
    200028b4:	b200c3f4 	mov	x20, #0x101010101010101     	// #72340172838076673
    200028b8:	33103d4a 	bfi	w10, w10, #16, #16
    200028bc:	b200c7f5 	mov	x21, #0x303030303030303     	// #217020518514230019
    200028c0:	292b4c73 	stp	w19, w19, [x3, #-168]
    200028c4:	33103d6b 	bfi	w11, w11, #16, #16
    200028c8:	b207c3f3 	mov	x19, #0x202020202020202     	// #144680345676153346
    200028cc:	292d787e 	stp	w30, w30, [x3, #-152]
    200028d0:	b206c3fe 	mov	x30, #0x404040404040404     	// #289360691352306692
    200028d4:	29313c6f 	stp	w15, w15, [x3, #-120]
    200028d8:	b203e3ef 	mov	x15, #0x2222222222222222    	// #2459565876494606882
    200028dc:	f815006e 	stur	x14, [x3, #-176]
    200028e0:	d280008e 	mov	x14, #0x4                   	// #4
    200028e4:	29331064 	stp	w4, w4, [x3, #-104]
    200028e8:	d1402064 	sub	x4, x3, #0x8, lsl #12
    200028ec:	a93a4071 	stp	x17, x16, [x3, #-96]
    200028f0:	f81b0060 	stur	x0, [x3, #-80]
    200028f4:	d1048060 	sub	x0, x3, #0x120
    200028f8:	2937346d 	stp	w13, w13, [x3, #-72]
    200028fc:	f81c0076 	stur	x22, [x3, #-64]
    20002900:	f81c8072 	stur	x18, [x3, #-56]
    20002904:	f81d007e 	stur	x30, [x3, #-48]
    20002908:	a9307c7f 	stp	xzr, xzr, [x3, #-256]
    2000290c:	29222c6b 	stp	w11, w11, [x3, #-240]
    20002910:	2923286a 	stp	w10, w10, [x3, #-232]
    20002914:	29242469 	stp	w9, w9, [x3, #-224]
    20002918:	29252068 	stp	w8, w8, [x3, #-216]
    2000291c:	29261c67 	stp	w7, w7, [x3, #-208]
    20002920:	29271866 	stp	w6, w6, [x3, #-200]
    20002924:	f814006f 	stur	x15, [x3, #-192]
    20002928:	29291465 	stp	w5, w5, [x3, #-184]
    2000292c:	293b306c 	stp	w12, w12, [x3, #-40]
    20002930:	a93e5473 	stp	x19, x21, [x3, #-32]
    20002934:	a93f5062 	stp	x2, x20, [x3, #-16]
    20002938:	a94153f3 	ldp	x19, x20, [sp, #16]
    2000293c:	a9425bf5 	ldp	x21, x22, [sp, #32]
    20002940:	f93f709f 	str	xzr, [x4, #32480]
    20002944:	f93f749f 	str	xzr, [x4, #32488]
    20002948:	f93f7881 	str	x1, [x4, #32496]
    2000294c:	f93f7c8e 	str	x14, [x4, #32504]
    20002950:	a8c37bfd 	ldp	x29, x30, [sp], #48
    20002954:	d65f03c0 	ret
    20002958:	d503201f 	nop
    2000295c:	d503201f 	nop

0000000020002960 <xPortStartScheduler>:
    20002960:	d5384240 	mrs	x0, currentel
    20002964:	121e0400 	and	w0, w0, #0xc
    20002968:	7100101f 	cmp	w0, #0x4
    2000296c:	54000060 	b.eq	20002978 <xPortStartScheduler+0x18>  // b.none
    20002970:	d2800000 	mov	x0, #0x0                   	// #0
    20002974:	d65f03c0 	ret
    20002978:	d2840100 	mov	x0, #0x2008                	// #8200
    2000297c:	f2bff080 	movk	x0, #0xff84, lsl #16
    20002980:	a9bf7bfd 	stp	x29, x30, [sp, #-16]!
    20002984:	910003fd 	mov	x29, sp
    20002988:	b9400000 	ldr	w0, [x0]
    2000298c:	d50342df 	msr	daifset, #0x2
    20002990:	d5033f9f 	dsb	sy
    20002994:	d5033fdf 	isb
    20002998:	97fffbca 	bl	200018c0 <vConfigureTickInterrupt>
    2000299c:	94000119 	bl	20002e00 <vPortRestoreTaskContext>
    200029a0:	d2800000 	mov	x0, #0x0                   	// #0
    200029a4:	a8c17bfd 	ldp	x29, x30, [sp], #16
    200029a8:	d65f03c0 	ret
    200029ac:	d503201f 	nop

00000000200029b0 <vPortEndScheduler>:
    200029b0:	d65f03c0 	ret
    200029b4:	d503201f 	nop
    200029b8:	d503201f 	nop
    200029bc:	d503201f 	nop

00000000200029c0 <vPortExitCritical>:
    200029c0:	b0000020 	adrp	x0, 20007000 <pt_config>
    200029c4:	f940b400 	ldr	x0, [x0, #360]
    200029c8:	f9400001 	ldr	x1, [x0]
    200029cc:	b4000241 	cbz	x1, 20002a14 <vPortExitCritical+0x54>
    200029d0:	f9400001 	ldr	x1, [x0]
    200029d4:	d1000421 	sub	x1, x1, #0x1
    200029d8:	f9000001 	str	x1, [x0]
    200029dc:	f9400000 	ldr	x0, [x0]
    200029e0:	b50001a0 	cbnz	x0, 20002a14 <vPortExitCritical+0x54>
    200029e4:	d50342df 	msr	daifset, #0x2
    200029e8:	d5033f9f 	dsb	sy
    200029ec:	d5033fdf 	isb
    200029f0:	52801fe1 	mov	w1, #0xff                  	// #255
    200029f4:	d2840080 	mov	x0, #0x2004                	// #8196
    200029f8:	f2bff080 	movk	x0, #0xff84, lsl #16
    200029fc:	b9000001 	str	w1, [x0]
    20002a00:	d5033f9f 	dsb	sy
    20002a04:	d5033fdf 	isb
    20002a08:	d50342ff 	msr	daifclr, #0x2
    20002a0c:	d5033f9f 	dsb	sy
    20002a10:	d5033fdf 	isb
    20002a14:	d65f03c0 	ret
    20002a18:	d503201f 	nop
    20002a1c:	d503201f 	nop

0000000020002a20 <FreeRTOS_Tick_Handler>:
    20002a20:	52801c01 	mov	w1, #0xe0                  	// #224
    20002a24:	d2840080 	mov	x0, #0x2004                	// #8196
    20002a28:	f2bff080 	movk	x0, #0xff84, lsl #16
    20002a2c:	a9bf7bfd 	stp	x29, x30, [sp, #-16]!
    20002a30:	910003fd 	mov	x29, sp
    20002a34:	b9000001 	str	w1, [x0]
    20002a38:	d5033f9f 	dsb	sy
    20002a3c:	d5033fdf 	isb
    20002a40:	97fffbb0 	bl	20001900 <vClearTickInterrupt>
    20002a44:	d50342ff 	msr	daifclr, #0x2
    20002a48:	d5033f9f 	dsb	sy
    20002a4c:	d5033fdf 	isb
    20002a50:	94000774 	bl	20004820 <xTaskIncrementTick>
    20002a54:	b40000a0 	cbz	x0, 20002a68 <FreeRTOS_Tick_Handler+0x48>
    20002a58:	b0000020 	adrp	x0, 20007000 <pt_config>
    20002a5c:	d2800021 	mov	x1, #0x1                   	// #1
    20002a60:	f940c800 	ldr	x0, [x0, #400]
    20002a64:	f9000001 	str	x1, [x0]
    20002a68:	d50342df 	msr	daifset, #0x2
    20002a6c:	d5033f9f 	dsb	sy
    20002a70:	d5033fdf 	isb
    20002a74:	52801fe1 	mov	w1, #0xff                  	// #255
    20002a78:	d2840080 	mov	x0, #0x2004                	// #8196
    20002a7c:	f2bff080 	movk	x0, #0xff84, lsl #16
    20002a80:	b9000001 	str	w1, [x0]
    20002a84:	d5033f9f 	dsb	sy
    20002a88:	d5033fdf 	isb
    20002a8c:	d50342ff 	msr	daifclr, #0x2
    20002a90:	d5033f9f 	dsb	sy
    20002a94:	d5033fdf 	isb
    20002a98:	a8c17bfd 	ldp	x29, x30, [sp], #16
    20002a9c:	d65f03c0 	ret

0000000020002aa0 <vPortTaskUsesFPU>:
    20002aa0:	b0000020 	adrp	x0, 20007000 <pt_config>
    20002aa4:	d2800021 	mov	x1, #0x1                   	// #1
    20002aa8:	f940d000 	ldr	x0, [x0, #416]
    20002aac:	f9000001 	str	x1, [x0]
    20002ab0:	d65f03c0 	ret
    20002ab4:	d503201f 	nop
    20002ab8:	d503201f 	nop
    20002abc:	d503201f 	nop

0000000020002ac0 <vPortClearInterruptMask>:
    20002ac0:	b50001a0 	cbnz	x0, 20002af4 <vPortClearInterruptMask+0x34>
    20002ac4:	d50342df 	msr	daifset, #0x2
    20002ac8:	d5033f9f 	dsb	sy
    20002acc:	d5033fdf 	isb
    20002ad0:	52801fe1 	mov	w1, #0xff                  	// #255
    20002ad4:	d2840080 	mov	x0, #0x2004                	// #8196
    20002ad8:	f2bff080 	movk	x0, #0xff84, lsl #16
    20002adc:	b9000001 	str	w1, [x0]
    20002ae0:	d5033f9f 	dsb	sy
    20002ae4:	d5033fdf 	isb
    20002ae8:	d50342ff 	msr	daifclr, #0x2
    20002aec:	d5033f9f 	dsb	sy
    20002af0:	d5033fdf 	isb
    20002af4:	d65f03c0 	ret
    20002af8:	d503201f 	nop
    20002afc:	d503201f 	nop

0000000020002b00 <uxPortSetInterruptMask>:
    20002b00:	d50342df 	msr	daifset, #0x2
    20002b04:	d5033f9f 	dsb	sy
    20002b08:	d5033fdf 	isb
    20002b0c:	d2840081 	mov	x1, #0x2004                	// #8196
    20002b10:	f2bff081 	movk	x1, #0xff84, lsl #16
    20002b14:	b9400022 	ldr	w2, [x1]
    20002b18:	d2800020 	mov	x0, #0x1                   	// #1
    20002b1c:	7103805f 	cmp	w2, #0xe0
    20002b20:	540000c0 	b.eq	20002b38 <uxPortSetInterruptMask+0x38>  // b.none
    20002b24:	52801c00 	mov	w0, #0xe0                  	// #224
    20002b28:	b9000020 	str	w0, [x1]
    20002b2c:	d5033f9f 	dsb	sy
    20002b30:	d5033fdf 	isb
    20002b34:	d2800000 	mov	x0, #0x0                   	// #0
    20002b38:	d50342ff 	msr	daifclr, #0x2
    20002b3c:	d5033f9f 	dsb	sy
    20002b40:	d5033fdf 	isb
    20002b44:	d65f03c0 	ret
    20002b48:	d503201f 	nop
    20002b4c:	d503201f 	nop

0000000020002b50 <vPortEnterCritical>:
    20002b50:	a9bf7bfd 	stp	x29, x30, [sp, #-16]!
    20002b54:	910003fd 	mov	x29, sp
    20002b58:	97ffffea 	bl	20002b00 <uxPortSetInterruptMask>
    20002b5c:	b0000020 	adrp	x0, 20007000 <pt_config>
    20002b60:	f940b400 	ldr	x0, [x0, #360]
    20002b64:	f9400001 	ldr	x1, [x0]
    20002b68:	91000421 	add	x1, x1, #0x1
    20002b6c:	f9000001 	str	x1, [x0]
    20002b70:	a8c17bfd 	ldp	x29, x30, [sp], #16
    20002b74:	f9400000 	ldr	x0, [x0]
    20002b78:	d65f03c0 	ret
	...

0000000020002c00 <FreeRTOS_SWI_Handler>:
    20002c00:	d50040bf 	msr	spsel, #0x0
    20002c04:	a9bf07e0 	stp	x0, x1, [sp, #-16]!
    20002c08:	a9bf0fe2 	stp	x2, x3, [sp, #-16]!
    20002c0c:	a9bf17e4 	stp	x4, x5, [sp, #-16]!
    20002c10:	a9bf1fe6 	stp	x6, x7, [sp, #-16]!
    20002c14:	a9bf27e8 	stp	x8, x9, [sp, #-16]!
    20002c18:	a9bf2fea 	stp	x10, x11, [sp, #-16]!
    20002c1c:	a9bf37ec 	stp	x12, x13, [sp, #-16]!
    20002c20:	a9bf3fee 	stp	x14, x15, [sp, #-16]!
    20002c24:	a9bf47f0 	stp	x16, x17, [sp, #-16]!
    20002c28:	a9bf4ff2 	stp	x18, x19, [sp, #-16]!
    20002c2c:	a9bf57f4 	stp	x20, x21, [sp, #-16]!
    20002c30:	a9bf5ff6 	stp	x22, x23, [sp, #-16]!
    20002c34:	a9bf67f8 	stp	x24, x25, [sp, #-16]!
    20002c38:	a9bf6ffa 	stp	x26, x27, [sp, #-16]!
    20002c3c:	a9bf77fc 	stp	x28, x29, [sp, #-16]!
    20002c40:	a9bf7ffe 	stp	x30, xzr, [sp, #-16]!
    20002c44:	d5384003 	mrs	x3, spsr_el1
    20002c48:	d5384022 	mrs	x2, elr_el1
    20002c4c:	a9bf0fe2 	stp	x2, x3, [sp, #-16]!
    20002c50:	58002dc0 	ldr	x0, 20003208 <ullCriticalNestingConst>
    20002c54:	f9400003 	ldr	x3, [x0]
    20002c58:	58002dc0 	ldr	x0, 20003210 <ullPortTaskHasFPUContextConst>
    20002c5c:	f9400002 	ldr	x2, [x0]
    20002c60:	f100005f 	cmp	x2, #0x0
    20002c64:	54000220 	b.eq	20002ca8 <FreeRTOS_SWI_Handler+0xa8>  // b.none
    20002c68:	adbf07e0 	stp	q0, q1, [sp, #-32]!
    20002c6c:	adbf0fe2 	stp	q2, q3, [sp, #-32]!
    20002c70:	adbf17e4 	stp	q4, q5, [sp, #-32]!
    20002c74:	adbf1fe6 	stp	q6, q7, [sp, #-32]!
    20002c78:	adbf27e8 	stp	q8, q9, [sp, #-32]!
    20002c7c:	adbf2fea 	stp	q10, q11, [sp, #-32]!
    20002c80:	adbf37ec 	stp	q12, q13, [sp, #-32]!
    20002c84:	adbf3fee 	stp	q14, q15, [sp, #-32]!
    20002c88:	adbf47f0 	stp	q16, q17, [sp, #-32]!
    20002c8c:	adbf4ff2 	stp	q18, q19, [sp, #-32]!
    20002c90:	adbf57f4 	stp	q20, q21, [sp, #-32]!
    20002c94:	adbf5ff6 	stp	q22, q23, [sp, #-32]!
    20002c98:	adbf67f8 	stp	q24, q25, [sp, #-32]!
    20002c9c:	adbf6ffa 	stp	q26, q27, [sp, #-32]!
    20002ca0:	adbf77fc 	stp	q28, q29, [sp, #-32]!
    20002ca4:	adbf7ffe 	stp	q30, q31, [sp, #-32]!
    20002ca8:	a9bf0fe2 	stp	x2, x3, [sp, #-16]!
    20002cac:	58002aa0 	ldr	x0, 20003200 <pxCurrentTCBConst>
    20002cb0:	f9400001 	ldr	x1, [x0]
    20002cb4:	910003e0 	mov	x0, sp
    20002cb8:	f9000020 	str	x0, [x1]
    20002cbc:	d50041bf 	msr	spsel, #0x1
    20002cc0:	d5385200 	mrs	x0, esr_el1
    20002cc4:	d35afc01 	lsr	x1, x0, #26
    20002cc8:	f100543f 	cmp	x1, #0x15
    20002ccc:	540007a1 	b.ne	20002dc0 <FreeRTOS_Abort>  // b.any
    20002cd0:	940007cc 	bl	20004c00 <vTaskSwitchContext>
    20002cd4:	d50040bf 	msr	spsel, #0x0
    20002cd8:	58002940 	ldr	x0, 20003200 <pxCurrentTCBConst>
    20002cdc:	f9400001 	ldr	x1, [x0]
    20002ce0:	f9400020 	ldr	x0, [x1]
    20002ce4:	9100001f 	mov	sp, x0
    20002ce8:	a8c10fe2 	ldp	x2, x3, [sp], #16
    20002cec:	580028e0 	ldr	x0, 20003208 <ullCriticalNestingConst>
    20002cf0:	d2801fe1 	mov	x1, #0xff                  	// #255
    20002cf4:	58002924 	ldr	x4, 20003218 <ullICCPMRConst>
    20002cf8:	f100007f 	cmp	x3, #0x0
    20002cfc:	f9400085 	ldr	x5, [x4]
    20002d00:	54000060 	b.eq	20002d0c <FreeRTOS_SWI_Handler+0x10c>  // b.none
    20002d04:	580028e6 	ldr	x6, 20003220 <ullMaxAPIPriorityMaskConst>
    20002d08:	f94000c1 	ldr	x1, [x6]
    20002d0c:	b90000a1 	str	w1, [x5]
    20002d10:	d5033f9f 	dsb	sy
    20002d14:	d5033fdf 	isb
    20002d18:	f9000003 	str	x3, [x0]
    20002d1c:	580027a0 	ldr	x0, 20003210 <ullPortTaskHasFPUContextConst>
    20002d20:	f9000002 	str	x2, [x0]
    20002d24:	f100005f 	cmp	x2, #0x0
    20002d28:	54000220 	b.eq	20002d6c <FreeRTOS_SWI_Handler+0x16c>  // b.none
    20002d2c:	acc17ffe 	ldp	q30, q31, [sp], #32
    20002d30:	acc177fc 	ldp	q28, q29, [sp], #32
    20002d34:	acc16ffa 	ldp	q26, q27, [sp], #32
    20002d38:	acc167f8 	ldp	q24, q25, [sp], #32
    20002d3c:	acc15ff6 	ldp	q22, q23, [sp], #32
    20002d40:	acc157f4 	ldp	q20, q21, [sp], #32
    20002d44:	acc14ff2 	ldp	q18, q19, [sp], #32
    20002d48:	acc147f0 	ldp	q16, q17, [sp], #32
    20002d4c:	acc13fee 	ldp	q14, q15, [sp], #32
    20002d50:	acc137ec 	ldp	q12, q13, [sp], #32
    20002d54:	acc12fea 	ldp	q10, q11, [sp], #32
    20002d58:	acc127e8 	ldp	q8, q9, [sp], #32
    20002d5c:	acc11fe6 	ldp	q6, q7, [sp], #32
    20002d60:	acc117e4 	ldp	q4, q5, [sp], #32
    20002d64:	acc10fe2 	ldp	q2, q3, [sp], #32
    20002d68:	acc107e0 	ldp	q0, q1, [sp], #32
    20002d6c:	a8c10fe2 	ldp	x2, x3, [sp], #16
    20002d70:	d5184003 	msr	spsr_el1, x3
    20002d74:	d5184022 	msr	elr_el1, x2
    20002d78:	a8c17ffe 	ldp	x30, xzr, [sp], #16
    20002d7c:	a8c177fc 	ldp	x28, x29, [sp], #16
    20002d80:	a8c16ffa 	ldp	x26, x27, [sp], #16
    20002d84:	a8c167f8 	ldp	x24, x25, [sp], #16
    20002d88:	a8c15ff6 	ldp	x22, x23, [sp], #16
    20002d8c:	a8c157f4 	ldp	x20, x21, [sp], #16
    20002d90:	a8c14ff2 	ldp	x18, x19, [sp], #16
    20002d94:	a8c147f0 	ldp	x16, x17, [sp], #16
    20002d98:	a8c13fee 	ldp	x14, x15, [sp], #16
    20002d9c:	a8c137ec 	ldp	x12, x13, [sp], #16
    20002da0:	a8c12fea 	ldp	x10, x11, [sp], #16
    20002da4:	a8c127e8 	ldp	x8, x9, [sp], #16
    20002da8:	a8c11fe6 	ldp	x6, x7, [sp], #16
    20002dac:	a8c117e4 	ldp	x4, x5, [sp], #16
    20002db0:	a8c10fe2 	ldp	x2, x3, [sp], #16
    20002db4:	a8c107e0 	ldp	x0, x1, [sp], #16
    20002db8:	d50041bf 	msr	spsel, #0x1
    20002dbc:	d69f03e0 	eret

0000000020002dc0 <FreeRTOS_Abort>:
    20002dc0:	14000000 	b	20002dc0 <FreeRTOS_Abort>
    20002dc4:	d503201f 	nop
    20002dc8:	d503201f 	nop
    20002dcc:	d503201f 	nop
    20002dd0:	d503201f 	nop
    20002dd4:	d503201f 	nop
    20002dd8:	d503201f 	nop
    20002ddc:	d503201f 	nop
    20002de0:	d503201f 	nop
    20002de4:	d503201f 	nop
    20002de8:	d503201f 	nop
    20002dec:	d503201f 	nop
    20002df0:	d503201f 	nop
    20002df4:	d503201f 	nop
    20002df8:	d503201f 	nop
    20002dfc:	d503201f 	nop

0000000020002e00 <vPortRestoreTaskContext>:
    20002e00:	58002901 	ldr	x1, 20003320 <ullICCEOIRConst+0x8>
    20002e04:	d518c001 	msr	vbar_el1, x1
    20002e08:	d5033f9f 	dsb	sy
    20002e0c:	d5033fdf 	isb
    20002e10:	d50040bf 	msr	spsel, #0x0
    20002e14:	58001f60 	ldr	x0, 20003200 <pxCurrentTCBConst>
    20002e18:	f9400001 	ldr	x1, [x0]
    20002e1c:	f9400020 	ldr	x0, [x1]
    20002e20:	9100001f 	mov	sp, x0
    20002e24:	a8c10fe2 	ldp	x2, x3, [sp], #16
    20002e28:	58001f00 	ldr	x0, 20003208 <ullCriticalNestingConst>
    20002e2c:	d2801fe1 	mov	x1, #0xff                  	// #255
    20002e30:	58001f44 	ldr	x4, 20003218 <ullICCPMRConst>
    20002e34:	f100007f 	cmp	x3, #0x0
    20002e38:	f9400085 	ldr	x5, [x4]
    20002e3c:	54000060 	b.eq	20002e48 <vPortRestoreTaskContext+0x48>  // b.none
    20002e40:	58001f06 	ldr	x6, 20003220 <ullMaxAPIPriorityMaskConst>
    20002e44:	f94000c1 	ldr	x1, [x6]
    20002e48:	b90000a1 	str	w1, [x5]
    20002e4c:	d5033f9f 	dsb	sy
    20002e50:	d5033fdf 	isb
    20002e54:	f9000003 	str	x3, [x0]
    20002e58:	58001dc0 	ldr	x0, 20003210 <ullPortTaskHasFPUContextConst>
    20002e5c:	f9000002 	str	x2, [x0]
    20002e60:	f100005f 	cmp	x2, #0x0
    20002e64:	54000220 	b.eq	20002ea8 <vPortRestoreTaskContext+0xa8>  // b.none
    20002e68:	acc17ffe 	ldp	q30, q31, [sp], #32
    20002e6c:	acc177fc 	ldp	q28, q29, [sp], #32
    20002e70:	acc16ffa 	ldp	q26, q27, [sp], #32
    20002e74:	acc167f8 	ldp	q24, q25, [sp], #32
    20002e78:	acc15ff6 	ldp	q22, q23, [sp], #32
    20002e7c:	acc157f4 	ldp	q20, q21, [sp], #32
    20002e80:	acc14ff2 	ldp	q18, q19, [sp], #32
    20002e84:	acc147f0 	ldp	q16, q17, [sp], #32
    20002e88:	acc13fee 	ldp	q14, q15, [sp], #32
    20002e8c:	acc137ec 	ldp	q12, q13, [sp], #32
    20002e90:	acc12fea 	ldp	q10, q11, [sp], #32
    20002e94:	acc127e8 	ldp	q8, q9, [sp], #32
    20002e98:	acc11fe6 	ldp	q6, q7, [sp], #32
    20002e9c:	acc117e4 	ldp	q4, q5, [sp], #32
    20002ea0:	acc10fe2 	ldp	q2, q3, [sp], #32
    20002ea4:	acc107e0 	ldp	q0, q1, [sp], #32
    20002ea8:	a8c10fe2 	ldp	x2, x3, [sp], #16
    20002eac:	d5184003 	msr	spsr_el1, x3
    20002eb0:	d5184022 	msr	elr_el1, x2
    20002eb4:	a8c17ffe 	ldp	x30, xzr, [sp], #16
    20002eb8:	a8c177fc 	ldp	x28, x29, [sp], #16
    20002ebc:	a8c16ffa 	ldp	x26, x27, [sp], #16
    20002ec0:	a8c167f8 	ldp	x24, x25, [sp], #16
    20002ec4:	a8c15ff6 	ldp	x22, x23, [sp], #16
    20002ec8:	a8c157f4 	ldp	x20, x21, [sp], #16
    20002ecc:	a8c14ff2 	ldp	x18, x19, [sp], #16
    20002ed0:	a8c147f0 	ldp	x16, x17, [sp], #16
    20002ed4:	a8c13fee 	ldp	x14, x15, [sp], #16
    20002ed8:	a8c137ec 	ldp	x12, x13, [sp], #16
    20002edc:	a8c12fea 	ldp	x10, x11, [sp], #16
    20002ee0:	a8c127e8 	ldp	x8, x9, [sp], #16
    20002ee4:	a8c11fe6 	ldp	x6, x7, [sp], #16
    20002ee8:	a8c117e4 	ldp	x4, x5, [sp], #16
    20002eec:	a8c10fe2 	ldp	x2, x3, [sp], #16
    20002ef0:	a8c107e0 	ldp	x0, x1, [sp], #16
    20002ef4:	d50041bf 	msr	spsel, #0x1
    20002ef8:	d69f03e0 	eret
    20002efc:	d503201f 	nop

0000000020002f00 <FreeRTOS_IRQ_Handler>:
    20002f00:	a9bf07e0 	stp	x0, x1, [sp, #-16]!
    20002f04:	a9bf0fe2 	stp	x2, x3, [sp, #-16]!
    20002f08:	a9bf17e4 	stp	x4, x5, [sp, #-16]!
    20002f0c:	a9bf1fe6 	stp	x6, x7, [sp, #-16]!
    20002f10:	a9bf27e8 	stp	x8, x9, [sp, #-16]!
    20002f14:	a9bf2fea 	stp	x10, x11, [sp, #-16]!
    20002f18:	a9bf37ec 	stp	x12, x13, [sp, #-16]!
    20002f1c:	a9bf3fee 	stp	x14, x15, [sp, #-16]!
    20002f20:	a9bf47f0 	stp	x16, x17, [sp, #-16]!
    20002f24:	a9bf4ff2 	stp	x18, x19, [sp, #-16]!
    20002f28:	a9bf7bfd 	stp	x29, x30, [sp, #-16]!
    20002f2c:	d5384003 	mrs	x3, spsr_el1
    20002f30:	d5384022 	mrs	x2, elr_el1
    20002f34:	a9bf0fe2 	stp	x2, x3, [sp, #-16]!
    20002f38:	58001e45 	ldr	x5, 20003300 <ullPortInterruptNestingConst>
    20002f3c:	f94000a1 	ldr	x1, [x5]
    20002f40:	91000426 	add	x6, x1, #0x1
    20002f44:	f90000a6 	str	x6, [x5]
    20002f48:	a9bf17e1 	stp	x1, x5, [sp, #-16]!
    20002f4c:	58001e22 	ldr	x2, 20003310 <ullICCIARConst>
    20002f50:	f9400043 	ldr	x3, [x2]
    20002f54:	b9400060 	ldr	w0, [x3]
    20002f58:	a9bf07e0 	stp	x0, x1, [sp, #-16]!
    20002f5c:	97fffa6d 	bl	20001910 <vApplicationIRQHandler>
    20002f60:	d50342df 	msr	daifset, #0x2
    20002f64:	d5033f9f 	dsb	sy
    20002f68:	d5033fdf 	isb
    20002f6c:	a8c107e0 	ldp	x0, x1, [sp], #16
    20002f70:	58001d44 	ldr	x4, 20003318 <ullICCEOIRConst>
    20002f74:	f9400084 	ldr	x4, [x4]
    20002f78:	b9000080 	str	w0, [x4]
    20002f7c:	a8c117e1 	ldp	x1, x5, [sp], #16
    20002f80:	f90000a1 	str	x1, [x5]
    20002f84:	f100003f 	cmp	x1, #0x0
    20002f88:	54001061 	b.ne	20003194 <Exit_IRQ_No_Context_Switch>  // b.any
    20002f8c:	58001be0 	ldr	x0, 20003308 <ullPortYieldRequiredConst>
    20002f90:	f9400001 	ldr	x1, [x0]
    20002f94:	f100003f 	cmp	x1, #0x0
    20002f98:	54000fe0 	b.eq	20003194 <Exit_IRQ_No_Context_Switch>  // b.none
    20002f9c:	d2800002 	mov	x2, #0x0                   	// #0
    20002fa0:	f9000002 	str	x2, [x0]
    20002fa4:	a8c117e4 	ldp	x4, x5, [sp], #16
    20002fa8:	d5184005 	msr	spsr_el1, x5
    20002fac:	d5184024 	msr	elr_el1, x4
    20002fb0:	d5033f9f 	dsb	sy
    20002fb4:	d5033fdf 	isb
    20002fb8:	a8c17bfd 	ldp	x29, x30, [sp], #16
    20002fbc:	a8c14ff2 	ldp	x18, x19, [sp], #16
    20002fc0:	a8c147f0 	ldp	x16, x17, [sp], #16
    20002fc4:	a8c13fee 	ldp	x14, x15, [sp], #16
    20002fc8:	a8c137ec 	ldp	x12, x13, [sp], #16
    20002fcc:	a8c12fea 	ldp	x10, x11, [sp], #16
    20002fd0:	a8c127e8 	ldp	x8, x9, [sp], #16
    20002fd4:	a8c11fe6 	ldp	x6, x7, [sp], #16
    20002fd8:	a8c117e4 	ldp	x4, x5, [sp], #16
    20002fdc:	a8c10fe2 	ldp	x2, x3, [sp], #16
    20002fe0:	a8c107e0 	ldp	x0, x1, [sp], #16
    20002fe4:	d50040bf 	msr	spsel, #0x0
    20002fe8:	a9bf07e0 	stp	x0, x1, [sp, #-16]!
    20002fec:	a9bf0fe2 	stp	x2, x3, [sp, #-16]!
    20002ff0:	a9bf17e4 	stp	x4, x5, [sp, #-16]!
    20002ff4:	a9bf1fe6 	stp	x6, x7, [sp, #-16]!
    20002ff8:	a9bf27e8 	stp	x8, x9, [sp, #-16]!
    20002ffc:	a9bf2fea 	stp	x10, x11, [sp, #-16]!
    20003000:	a9bf37ec 	stp	x12, x13, [sp, #-16]!
    20003004:	a9bf3fee 	stp	x14, x15, [sp, #-16]!
    20003008:	a9bf47f0 	stp	x16, x17, [sp, #-16]!
    2000300c:	a9bf4ff2 	stp	x18, x19, [sp, #-16]!
    20003010:	a9bf57f4 	stp	x20, x21, [sp, #-16]!
    20003014:	a9bf5ff6 	stp	x22, x23, [sp, #-16]!
    20003018:	a9bf67f8 	stp	x24, x25, [sp, #-16]!
    2000301c:	a9bf6ffa 	stp	x26, x27, [sp, #-16]!
    20003020:	a9bf77fc 	stp	x28, x29, [sp, #-16]!
    20003024:	a9bf7ffe 	stp	x30, xzr, [sp, #-16]!
    20003028:	d5384003 	mrs	x3, spsr_el1
    2000302c:	d5384022 	mrs	x2, elr_el1
    20003030:	a9bf0fe2 	stp	x2, x3, [sp, #-16]!
    20003034:	58000ea0 	ldr	x0, 20003208 <ullCriticalNestingConst>
    20003038:	f9400003 	ldr	x3, [x0]
    2000303c:	58000ea0 	ldr	x0, 20003210 <ullPortTaskHasFPUContextConst>
    20003040:	f9400002 	ldr	x2, [x0]
    20003044:	f100005f 	cmp	x2, #0x0
    20003048:	54000220 	b.eq	2000308c <FreeRTOS_IRQ_Handler+0x18c>  // b.none
    2000304c:	adbf07e0 	stp	q0, q1, [sp, #-32]!
    20003050:	adbf0fe2 	stp	q2, q3, [sp, #-32]!
    20003054:	adbf17e4 	stp	q4, q5, [sp, #-32]!
    20003058:	adbf1fe6 	stp	q6, q7, [sp, #-32]!
    2000305c:	adbf27e8 	stp	q8, q9, [sp, #-32]!
    20003060:	adbf2fea 	stp	q10, q11, [sp, #-32]!
    20003064:	adbf37ec 	stp	q12, q13, [sp, #-32]!
    20003068:	adbf3fee 	stp	q14, q15, [sp, #-32]!
    2000306c:	adbf47f0 	stp	q16, q17, [sp, #-32]!
    20003070:	adbf4ff2 	stp	q18, q19, [sp, #-32]!
    20003074:	adbf57f4 	stp	q20, q21, [sp, #-32]!
    20003078:	adbf5ff6 	stp	q22, q23, [sp, #-32]!
    2000307c:	adbf67f8 	stp	q24, q25, [sp, #-32]!
    20003080:	adbf6ffa 	stp	q26, q27, [sp, #-32]!
    20003084:	adbf77fc 	stp	q28, q29, [sp, #-32]!
    20003088:	adbf7ffe 	stp	q30, q31, [sp, #-32]!
    2000308c:	a9bf0fe2 	stp	x2, x3, [sp, #-16]!
    20003090:	58000b80 	ldr	x0, 20003200 <pxCurrentTCBConst>
    20003094:	f9400001 	ldr	x1, [x0]
    20003098:	910003e0 	mov	x0, sp
    2000309c:	f9000020 	str	x0, [x1]
    200030a0:	d50041bf 	msr	spsel, #0x1
    200030a4:	940006d7 	bl	20004c00 <vTaskSwitchContext>
    200030a8:	d50040bf 	msr	spsel, #0x0
    200030ac:	58000aa0 	ldr	x0, 20003200 <pxCurrentTCBConst>
    200030b0:	f9400001 	ldr	x1, [x0]
    200030b4:	f9400020 	ldr	x0, [x1]
    200030b8:	9100001f 	mov	sp, x0
    200030bc:	a8c10fe2 	ldp	x2, x3, [sp], #16
    200030c0:	58000a40 	ldr	x0, 20003208 <ullCriticalNestingConst>
    200030c4:	d2801fe1 	mov	x1, #0xff                  	// #255
    200030c8:	58000a84 	ldr	x4, 20003218 <ullICCPMRConst>
    200030cc:	f100007f 	cmp	x3, #0x0
    200030d0:	f9400085 	ldr	x5, [x4]
    200030d4:	54000060 	b.eq	200030e0 <FreeRTOS_IRQ_Handler+0x1e0>  // b.none
    200030d8:	58000a46 	ldr	x6, 20003220 <ullMaxAPIPriorityMaskConst>
    200030dc:	f94000c1 	ldr	x1, [x6]
    200030e0:	b90000a1 	str	w1, [x5]
    200030e4:	d5033f9f 	dsb	sy
    200030e8:	d5033fdf 	isb
    200030ec:	f9000003 	str	x3, [x0]
    200030f0:	58000900 	ldr	x0, 20003210 <ullPortTaskHasFPUContextConst>
    200030f4:	f9000002 	str	x2, [x0]
    200030f8:	f100005f 	cmp	x2, #0x0
    200030fc:	54000220 	b.eq	20003140 <FreeRTOS_IRQ_Handler+0x240>  // b.none
    20003100:	acc17ffe 	ldp	q30, q31, [sp], #32
    20003104:	acc177fc 	ldp	q28, q29, [sp], #32
    20003108:	acc16ffa 	ldp	q26, q27, [sp], #32
    2000310c:	acc167f8 	ldp	q24, q25, [sp], #32
    20003110:	acc15ff6 	ldp	q22, q23, [sp], #32
    20003114:	acc157f4 	ldp	q20, q21, [sp], #32
    20003118:	acc14ff2 	ldp	q18, q19, [sp], #32
    2000311c:	acc147f0 	ldp	q16, q17, [sp], #32
    20003120:	acc13fee 	ldp	q14, q15, [sp], #32
    20003124:	acc137ec 	ldp	q12, q13, [sp], #32
    20003128:	acc12fea 	ldp	q10, q11, [sp], #32
    2000312c:	acc127e8 	ldp	q8, q9, [sp], #32
    20003130:	acc11fe6 	ldp	q6, q7, [sp], #32
    20003134:	acc117e4 	ldp	q4, q5, [sp], #32
    20003138:	acc10fe2 	ldp	q2, q3, [sp], #32
    2000313c:	acc107e0 	ldp	q0, q1, [sp], #32
    20003140:	a8c10fe2 	ldp	x2, x3, [sp], #16
    20003144:	d5184003 	msr	spsr_el1, x3
    20003148:	d5184022 	msr	elr_el1, x2
    2000314c:	a8c17ffe 	ldp	x30, xzr, [sp], #16
    20003150:	a8c177fc 	ldp	x28, x29, [sp], #16
    20003154:	a8c16ffa 	ldp	x26, x27, [sp], #16
    20003158:	a8c167f8 	ldp	x24, x25, [sp], #16
    2000315c:	a8c15ff6 	ldp	x22, x23, [sp], #16
    20003160:	a8c157f4 	ldp	x20, x21, [sp], #16
    20003164:	a8c14ff2 	ldp	x18, x19, [sp], #16
    20003168:	a8c147f0 	ldp	x16, x17, [sp], #16
    2000316c:	a8c13fee 	ldp	x14, x15, [sp], #16
    20003170:	a8c137ec 	ldp	x12, x13, [sp], #16
    20003174:	a8c12fea 	ldp	x10, x11, [sp], #16
    20003178:	a8c127e8 	ldp	x8, x9, [sp], #16
    2000317c:	a8c11fe6 	ldp	x6, x7, [sp], #16
    20003180:	a8c117e4 	ldp	x4, x5, [sp], #16
    20003184:	a8c10fe2 	ldp	x2, x3, [sp], #16
    20003188:	a8c107e0 	ldp	x0, x1, [sp], #16
    2000318c:	d50041bf 	msr	spsel, #0x1
    20003190:	d69f03e0 	eret

0000000020003194 <Exit_IRQ_No_Context_Switch>:
    20003194:	a8c117e4 	ldp	x4, x5, [sp], #16
    20003198:	d5184005 	msr	spsr_el1, x5
    2000319c:	d5184024 	msr	elr_el1, x4
    200031a0:	d5033f9f 	dsb	sy
    200031a4:	d5033fdf 	isb
    200031a8:	a8c17bfd 	ldp	x29, x30, [sp], #16
    200031ac:	a8c14ff2 	ldp	x18, x19, [sp], #16
    200031b0:	a8c147f0 	ldp	x16, x17, [sp], #16
    200031b4:	a8c13fee 	ldp	x14, x15, [sp], #16
    200031b8:	a8c137ec 	ldp	x12, x13, [sp], #16
    200031bc:	a8c12fea 	ldp	x10, x11, [sp], #16
    200031c0:	a8c127e8 	ldp	x8, x9, [sp], #16
    200031c4:	a8c11fe6 	ldp	x6, x7, [sp], #16
    200031c8:	a8c117e4 	ldp	x4, x5, [sp], #16
    200031cc:	a8c10fe2 	ldp	x2, x3, [sp], #16
    200031d0:	a8c107e0 	ldp	x0, x1, [sp], #16
    200031d4:	d69f03e0 	eret
    200031d8:	d503201f 	nop
    200031dc:	d503201f 	nop
    200031e0:	d503201f 	nop
    200031e4:	d503201f 	nop
    200031e8:	d503201f 	nop
    200031ec:	d503201f 	nop
    200031f0:	d503201f 	nop
    200031f4:	d503201f 	nop
    200031f8:	d503201f 	nop
    200031fc:	d503201f 	nop

0000000020003200 <pxCurrentTCBConst>:
    20003200:	20008948 	.word	0x20008948
    20003204:	00000000 	.word	0x00000000

0000000020003208 <ullCriticalNestingConst>:
    20003208:	20007120 	.word	0x20007120
    2000320c:	00000000 	.word	0x00000000

0000000020003210 <ullPortTaskHasFPUContextConst>:
    20003210:	20008720 	.word	0x20008720
    20003214:	00000000 	.word	0x00000000

0000000020003218 <ullICCPMRConst>:
    20003218:	200064d8 	.word	0x200064d8
    2000321c:	00000000 	.word	0x00000000

0000000020003220 <ullMaxAPIPriorityMaskConst>:
    20003220:	200064d0 	.word	0x200064d0
    20003224:	00000000 	.word	0x00000000

0000000020003228 <vApplicationIRQHandlerConst>:
    20003228:	20001910 	.word	0x20001910
    2000322c:	d503201f 	nop
    20003230:	d503201f 	nop
    20003234:	d503201f 	nop
    20003238:	d503201f 	nop
    2000323c:	d503201f 	nop
    20003240:	d503201f 	nop
    20003244:	d503201f 	nop
    20003248:	d503201f 	nop
    2000324c:	d503201f 	nop
    20003250:	d503201f 	nop
    20003254:	d503201f 	nop
    20003258:	d503201f 	nop
    2000325c:	d503201f 	nop
    20003260:	d503201f 	nop
    20003264:	d503201f 	nop
    20003268:	d503201f 	nop
    2000326c:	d503201f 	nop
    20003270:	d503201f 	nop
    20003274:	d503201f 	nop
    20003278:	d503201f 	nop
    2000327c:	d503201f 	nop
    20003280:	d503201f 	nop
    20003284:	d503201f 	nop
    20003288:	d503201f 	nop
    2000328c:	d503201f 	nop
    20003290:	d503201f 	nop
    20003294:	d503201f 	nop
    20003298:	d503201f 	nop
    2000329c:	d503201f 	nop
    200032a0:	d503201f 	nop
    200032a4:	d503201f 	nop
    200032a8:	d503201f 	nop
    200032ac:	d503201f 	nop
    200032b0:	d503201f 	nop
    200032b4:	d503201f 	nop
    200032b8:	d503201f 	nop
    200032bc:	d503201f 	nop
    200032c0:	d503201f 	nop
    200032c4:	d503201f 	nop
    200032c8:	d503201f 	nop
    200032cc:	d503201f 	nop
    200032d0:	d503201f 	nop
    200032d4:	d503201f 	nop
    200032d8:	d503201f 	nop
    200032dc:	d503201f 	nop
    200032e0:	d503201f 	nop
    200032e4:	d503201f 	nop
    200032e8:	d503201f 	nop
    200032ec:	d503201f 	nop
    200032f0:	d503201f 	nop
    200032f4:	d503201f 	nop
    200032f8:	d503201f 	nop
    200032fc:	d503201f 	nop

0000000020003300 <ullPortInterruptNestingConst>:
    20003300:	20008710 	.word	0x20008710
    20003304:	00000000 	.word	0x00000000

0000000020003308 <ullPortYieldRequiredConst>:
    20003308:	20008718 	.word	0x20008718
    2000330c:	00000000 	.word	0x00000000

0000000020003310 <ullICCIARConst>:
    20003310:	200064e0 	.word	0x200064e0
    20003314:	00000000 	.word	0x00000000

0000000020003318 <ullICCEOIRConst>:
    20003318:	200064e8 	.word	0x200064e8
    2000331c:	00000000 	.word	0x00000000
    20003320:	20001000 	.word	0x20001000
	...

0000000020003330 <vListInitialise>:
    20003330:	91004001 	add	x1, x0, #0x10
    20003334:	92800002 	mov	x2, #0xffffffffffffffff    	// #-1
    20003338:	f900001f 	str	xzr, [x0]
    2000333c:	a9008801 	stp	x1, x2, [x0, #8]
    20003340:	a9018401 	stp	x1, x1, [x0, #24]
    20003344:	d65f03c0 	ret
    20003348:	d503201f 	nop
    2000334c:	d503201f 	nop

0000000020003350 <vListInitialiseItem>:
    20003350:	f900101f 	str	xzr, [x0, #32]
    20003354:	d65f03c0 	ret
    20003358:	d503201f 	nop
    2000335c:	d503201f 	nop

0000000020003360 <vListInsertEnd>:
    20003360:	f9400402 	ldr	x2, [x0, #8]
    20003364:	f9400003 	ldr	x3, [x0]
    20003368:	f9400844 	ldr	x4, [x2, #16]
    2000336c:	91000463 	add	x3, x3, #0x1
    20003370:	a9009022 	stp	x2, x4, [x1, #8]
    20003374:	f9400844 	ldr	x4, [x2, #16]
    20003378:	f9000481 	str	x1, [x4, #8]
    2000337c:	f9000841 	str	x1, [x2, #16]
    20003380:	f9001020 	str	x0, [x1, #32]
    20003384:	f9000003 	str	x3, [x0]
    20003388:	d65f03c0 	ret
    2000338c:	d503201f 	nop

0000000020003390 <vListInsert>:
    20003390:	f9400025 	ldr	x5, [x1]
    20003394:	91004002 	add	x2, x0, #0x10
    20003398:	b10004bf 	cmn	x5, #0x1
    2000339c:	540001e0 	b.eq	200033d8 <vListInsert+0x48>  // b.none
    200033a0:	aa0203e4 	mov	x4, x2
    200033a4:	f9400442 	ldr	x2, [x2, #8]
    200033a8:	f9400043 	ldr	x3, [x2]
    200033ac:	eb05007f 	cmp	x3, x5
    200033b0:	54ffff89 	b.ls	200033a0 <vListInsert+0x10>  // b.plast
    200033b4:	f9400003 	ldr	x3, [x0]
    200033b8:	f9000422 	str	x2, [x1, #8]
    200033bc:	f9000841 	str	x1, [x2, #16]
    200033c0:	f9000824 	str	x4, [x1, #16]
    200033c4:	f9000481 	str	x1, [x4, #8]
    200033c8:	91000462 	add	x2, x3, #0x1
    200033cc:	f9001020 	str	x0, [x1, #32]
    200033d0:	f9000002 	str	x2, [x0]
    200033d4:	d65f03c0 	ret
    200033d8:	f9401004 	ldr	x4, [x0, #32]
    200033dc:	f9400482 	ldr	x2, [x4, #8]
    200033e0:	17fffff5 	b	200033b4 <vListInsert+0x24>
    200033e4:	d503201f 	nop
    200033e8:	d503201f 	nop
    200033ec:	d503201f 	nop

00000000200033f0 <uxListRemove>:
    200033f0:	f9401001 	ldr	x1, [x0, #32]
    200033f4:	a9408803 	ldp	x3, x2, [x0, #8]
    200033f8:	f9400424 	ldr	x4, [x1, #8]
    200033fc:	f9000862 	str	x2, [x3, #16]
    20003400:	f9000443 	str	x3, [x2, #8]
    20003404:	eb00009f 	cmp	x4, x0
    20003408:	540000e0 	b.eq	20003424 <uxListRemove+0x34>  // b.none
    2000340c:	f9400022 	ldr	x2, [x1]
    20003410:	f900101f 	str	xzr, [x0, #32]
    20003414:	d1000440 	sub	x0, x2, #0x1
    20003418:	f9000020 	str	x0, [x1]
    2000341c:	f9400020 	ldr	x0, [x1]
    20003420:	d65f03c0 	ret
    20003424:	f9000422 	str	x2, [x1, #8]
    20003428:	f9400022 	ldr	x2, [x1]
    2000342c:	f900101f 	str	xzr, [x0, #32]
    20003430:	d1000440 	sub	x0, x2, #0x1
    20003434:	f9000020 	str	x0, [x1]
    20003438:	f9400020 	ldr	x0, [x1]
    2000343c:	d65f03c0 	ret

0000000020003440 <prvCopyDataToQueue>:
    20003440:	a9bd7bfd 	stp	x29, x30, [sp, #-48]!
    20003444:	910003fd 	mov	x29, sp
    20003448:	a90153f3 	stp	x19, x20, [sp, #16]
    2000344c:	aa0003f3 	mov	x19, x0
    20003450:	f9403814 	ldr	x20, [x0, #112]
    20003454:	f90013f5 	str	x21, [sp, #32]
    20003458:	aa0203f5 	mov	x21, x2
    2000345c:	f9404002 	ldr	x2, [x0, #128]
    20003460:	b5000142 	cbnz	x2, 20003488 <prvCopyDataToQueue+0x48>
    20003464:	f9400261 	ldr	x1, [x19]
    20003468:	91000694 	add	x20, x20, #0x1
    2000346c:	d2800000 	mov	x0, #0x0                   	// #0
    20003470:	b40005c1 	cbz	x1, 20003528 <prvCopyDataToQueue+0xe8>
    20003474:	f94013f5 	ldr	x21, [sp, #32]
    20003478:	f9003a74 	str	x20, [x19, #112]
    2000347c:	a94153f3 	ldp	x19, x20, [sp, #16]
    20003480:	a8c37bfd 	ldp	x29, x30, [sp], #48
    20003484:	d65f03c0 	ret
    20003488:	b5000255 	cbnz	x21, 200034d0 <prvCopyDataToQueue+0x90>
    2000348c:	f9400400 	ldr	x0, [x0, #8]
    20003490:	91000694 	add	x20, x20, #0x1
    20003494:	97fffc23 	bl	20002520 <memcpy>
    20003498:	a9408a61 	ldp	x1, x2, [x19, #8]
    2000349c:	d2800000 	mov	x0, #0x0                   	// #0
    200034a0:	f9404263 	ldr	x3, [x19, #128]
    200034a4:	8b030021 	add	x1, x1, x3
    200034a8:	eb02003f 	cmp	x1, x2
    200034ac:	f9000661 	str	x1, [x19, #8]
    200034b0:	54fffe23 	b.cc	20003474 <prvCopyDataToQueue+0x34>  // b.lo, b.ul, b.last
    200034b4:	f9400261 	ldr	x1, [x19]
    200034b8:	f94013f5 	ldr	x21, [sp, #32]
    200034bc:	f9003a74 	str	x20, [x19, #112]
    200034c0:	f9000661 	str	x1, [x19, #8]
    200034c4:	a94153f3 	ldp	x19, x20, [sp, #16]
    200034c8:	a8c37bfd 	ldp	x29, x30, [sp], #48
    200034cc:	d65f03c0 	ret
    200034d0:	f9400c00 	ldr	x0, [x0, #24]
    200034d4:	97fffc13 	bl	20002520 <memcpy>
    200034d8:	f9400e60 	ldr	x0, [x19, #24]
    200034dc:	f9404261 	ldr	x1, [x19, #128]
    200034e0:	f9400262 	ldr	x2, [x19]
    200034e4:	cb010000 	sub	x0, x0, x1
    200034e8:	cb0103e1 	neg	x1, x1
    200034ec:	eb02001f 	cmp	x0, x2
    200034f0:	f9000e60 	str	x0, [x19, #24]
    200034f4:	54000082 	b.cs	20003504 <prvCopyDataToQueue+0xc4>  // b.hs, b.nlast
    200034f8:	f9400a60 	ldr	x0, [x19, #16]
    200034fc:	8b010001 	add	x1, x0, x1
    20003500:	f9000e61 	str	x1, [x19, #24]
    20003504:	f1000abf 	cmp	x21, #0x2
    20003508:	54000180 	b.eq	20003538 <prvCopyDataToQueue+0xf8>  // b.none
    2000350c:	91000694 	add	x20, x20, #0x1
    20003510:	d2800000 	mov	x0, #0x0                   	// #0
    20003514:	f94013f5 	ldr	x21, [sp, #32]
    20003518:	f9003a74 	str	x20, [x19, #112]
    2000351c:	a94153f3 	ldp	x19, x20, [sp, #16]
    20003520:	a8c37bfd 	ldp	x29, x30, [sp], #48
    20003524:	d65f03c0 	ret
    20003528:	f9400a60 	ldr	x0, [x19, #16]
    2000352c:	94000705 	bl	20005140 <xTaskPriorityDisinherit>
    20003530:	f9000a7f 	str	xzr, [x19, #16]
    20003534:	17ffffd0 	b	20003474 <prvCopyDataToQueue+0x34>
    20003538:	f100029f 	cmp	x20, #0x0
    2000353c:	d2800000 	mov	x0, #0x0                   	// #0
    20003540:	9a9f1694 	csinc	x20, x20, xzr, ne  // ne = any
    20003544:	17ffffcc 	b	20003474 <prvCopyDataToQueue+0x34>
    20003548:	d503201f 	nop
    2000354c:	d503201f 	nop

0000000020003550 <prvCopyDataFromQueue>:
    20003550:	aa0003e3 	mov	x3, x0
    20003554:	aa0103e0 	mov	x0, x1
    20003558:	f9404062 	ldr	x2, [x3, #128]
    2000355c:	b4000122 	cbz	x2, 20003580 <prvCopyDataFromQueue+0x30>
    20003560:	a9410464 	ldp	x4, x1, [x3, #16]
    20003564:	8b020021 	add	x1, x1, x2
    20003568:	eb04003f 	cmp	x1, x4
    2000356c:	f9000c61 	str	x1, [x3, #24]
    20003570:	54000063 	b.cc	2000357c <prvCopyDataFromQueue+0x2c>  // b.lo, b.ul, b.last
    20003574:	f9400061 	ldr	x1, [x3]
    20003578:	f9000c61 	str	x1, [x3, #24]
    2000357c:	17fffbe9 	b	20002520 <memcpy>
    20003580:	d65f03c0 	ret
    20003584:	d503201f 	nop
    20003588:	d503201f 	nop
    2000358c:	d503201f 	nop

0000000020003590 <prvUnlockQueue>:
    20003590:	a9bd7bfd 	stp	x29, x30, [sp, #-48]!
    20003594:	910003fd 	mov	x29, sp
    20003598:	a90153f3 	stp	x19, x20, [sp, #16]
    2000359c:	aa0003f4 	mov	x20, x0
    200035a0:	f90013f5 	str	x21, [sp, #32]
    200035a4:	97fffd6b 	bl	20002b50 <vPortEnterCritical>
    200035a8:	39422681 	ldrb	w1, [x20, #137]
    200035ac:	13001c33 	sxtb	w19, w1
    200035b0:	7100027f 	cmp	w19, #0x0
    200035b4:	5400022d 	b.le	200035f8 <prvUnlockQueue+0x68>
    200035b8:	91012295 	add	x21, x20, #0x48
    200035bc:	14000005 	b	200035d0 <prvUnlockQueue+0x40>
    200035c0:	51000661 	sub	w1, w19, #0x1
    200035c4:	72001c3f 	tst	w1, #0xff
    200035c8:	13001c33 	sxtb	w19, w1
    200035cc:	54000160 	b.eq	200035f8 <prvUnlockQueue+0x68>  // b.none
    200035d0:	f9402681 	ldr	x1, [x20, #72]
    200035d4:	aa1503e0 	mov	x0, x21
    200035d8:	b4000101 	cbz	x1, 200035f8 <prvUnlockQueue+0x68>
    200035dc:	940005dd 	bl	20004d50 <xTaskRemoveFromEventList>
    200035e0:	b4ffff00 	cbz	x0, 200035c0 <prvUnlockQueue+0x30>
    200035e4:	94000673 	bl	20004fb0 <vTaskMissedYield>
    200035e8:	51000661 	sub	w1, w19, #0x1
    200035ec:	72001c3f 	tst	w1, #0xff
    200035f0:	13001c33 	sxtb	w19, w1
    200035f4:	54fffee1 	b.ne	200035d0 <prvUnlockQueue+0x40>  // b.any
    200035f8:	12800000 	mov	w0, #0xffffffff            	// #-1
    200035fc:	39022680 	strb	w0, [x20, #137]
    20003600:	97fffcf0 	bl	200029c0 <vPortExitCritical>
    20003604:	97fffd53 	bl	20002b50 <vPortEnterCritical>
    20003608:	39422281 	ldrb	w1, [x20, #136]
    2000360c:	13001c33 	sxtb	w19, w1
    20003610:	7100027f 	cmp	w19, #0x0
    20003614:	5400022d 	b.le	20003658 <prvUnlockQueue+0xc8>
    20003618:	91008295 	add	x21, x20, #0x20
    2000361c:	14000005 	b	20003630 <prvUnlockQueue+0xa0>
    20003620:	51000661 	sub	w1, w19, #0x1
    20003624:	72001c3f 	tst	w1, #0xff
    20003628:	13001c33 	sxtb	w19, w1
    2000362c:	54000160 	b.eq	20003658 <prvUnlockQueue+0xc8>  // b.none
    20003630:	f9401281 	ldr	x1, [x20, #32]
    20003634:	aa1503e0 	mov	x0, x21
    20003638:	b4000101 	cbz	x1, 20003658 <prvUnlockQueue+0xc8>
    2000363c:	940005c5 	bl	20004d50 <xTaskRemoveFromEventList>
    20003640:	b4ffff00 	cbz	x0, 20003620 <prvUnlockQueue+0x90>
    20003644:	9400065b 	bl	20004fb0 <vTaskMissedYield>
    20003648:	51000661 	sub	w1, w19, #0x1
    2000364c:	72001c3f 	tst	w1, #0xff
    20003650:	13001c33 	sxtb	w19, w1
    20003654:	54fffee1 	b.ne	20003630 <prvUnlockQueue+0xa0>  // b.any
    20003658:	12800000 	mov	w0, #0xffffffff            	// #-1
    2000365c:	39022280 	strb	w0, [x20, #136]
    20003660:	a94153f3 	ldp	x19, x20, [sp, #16]
    20003664:	f94013f5 	ldr	x21, [sp, #32]
    20003668:	a8c37bfd 	ldp	x29, x30, [sp], #48
    2000366c:	17fffcd5 	b	200029c0 <vPortExitCritical>

0000000020003670 <xQueueGenericReset>:
    20003670:	a9be7bfd 	stp	x29, x30, [sp, #-32]!
    20003674:	910003fd 	mov	x29, sp
    20003678:	a90153f3 	stp	x19, x20, [sp, #16]
    2000367c:	aa0003f3 	mov	x19, x0
    20003680:	aa0103f4 	mov	x20, x1
    20003684:	97fffd33 	bl	20002b50 <vPortEnterCritical>
    20003688:	a9478e60 	ldp	x0, x3, [x19, #120]
    2000368c:	12800004 	mov	w4, #0xffffffff            	// #-1
    20003690:	f9003a7f 	str	xzr, [x19, #112]
    20003694:	f9400262 	ldr	x2, [x19]
    20003698:	d1000401 	sub	x1, x0, #0x1
    2000369c:	39022264 	strb	w4, [x19, #136]
    200036a0:	39022664 	strb	w4, [x19, #137]
    200036a4:	9b030800 	madd	x0, x0, x3, x2
    200036a8:	9b030821 	madd	x1, x1, x3, x2
    200036ac:	a9008262 	stp	x2, x0, [x19, #8]
    200036b0:	f9000e61 	str	x1, [x19, #24]
    200036b4:	b5000234 	cbnz	x20, 200036f8 <xQueueGenericReset+0x88>
    200036b8:	f9401260 	ldr	x0, [x19, #32]
    200036bc:	b50000c0 	cbnz	x0, 200036d4 <xQueueGenericReset+0x64>
    200036c0:	97fffcc0 	bl	200029c0 <vPortExitCritical>
    200036c4:	d2800020 	mov	x0, #0x1                   	// #1
    200036c8:	a94153f3 	ldp	x19, x20, [sp, #16]
    200036cc:	a8c27bfd 	ldp	x29, x30, [sp], #32
    200036d0:	d65f03c0 	ret
    200036d4:	91008260 	add	x0, x19, #0x20
    200036d8:	9400059e 	bl	20004d50 <xTaskRemoveFromEventList>
    200036dc:	b4ffff20 	cbz	x0, 200036c0 <xQueueGenericReset+0x50>
    200036e0:	d4000001 	svc	#0x0
    200036e4:	97fffcb7 	bl	200029c0 <vPortExitCritical>
    200036e8:	d2800020 	mov	x0, #0x1                   	// #1
    200036ec:	a94153f3 	ldp	x19, x20, [sp, #16]
    200036f0:	a8c27bfd 	ldp	x29, x30, [sp], #32
    200036f4:	d65f03c0 	ret
    200036f8:	91008260 	add	x0, x19, #0x20
    200036fc:	97ffff0d 	bl	20003330 <vListInitialise>
    20003700:	91012260 	add	x0, x19, #0x48
    20003704:	97ffff0b 	bl	20003330 <vListInitialise>
    20003708:	97fffcae 	bl	200029c0 <vPortExitCritical>
    2000370c:	d2800020 	mov	x0, #0x1                   	// #1
    20003710:	a94153f3 	ldp	x19, x20, [sp, #16]
    20003714:	a8c27bfd 	ldp	x29, x30, [sp], #32
    20003718:	d65f03c0 	ret
    2000371c:	d503201f 	nop

0000000020003720 <xQueueGenericCreate>:
    20003720:	a9bd7bfd 	stp	x29, x30, [sp, #-48]!
    20003724:	910003fd 	mov	x29, sp
    20003728:	f90013f5 	str	x21, [sp, #32]
    2000372c:	aa0003f5 	mov	x21, x0
    20003730:	9b017c00 	mul	x0, x0, x1
    20003734:	a90153f3 	stp	x19, x20, [sp, #16]
    20003738:	aa0103f4 	mov	x20, x1
    2000373c:	91024000 	add	x0, x0, #0x90
    20003740:	94000a88 	bl	20006160 <pvPortMalloc>
    20003744:	aa0003f3 	mov	x19, x0
    20003748:	b4000100 	cbz	x0, 20003768 <xQueueGenericCreate+0x48>
    2000374c:	f100029f 	cmp	x20, #0x0
    20003750:	91024002 	add	x2, x0, #0x90
    20003754:	9a801042 	csel	x2, x2, x0, ne  // ne = any
    20003758:	d2800021 	mov	x1, #0x1                   	// #1
    2000375c:	f9000002 	str	x2, [x0]
    20003760:	a907d015 	stp	x21, x20, [x0, #120]
    20003764:	97ffffc3 	bl	20003670 <xQueueGenericReset>
    20003768:	aa1303e0 	mov	x0, x19
    2000376c:	a94153f3 	ldp	x19, x20, [sp, #16]
    20003770:	f94013f5 	ldr	x21, [sp, #32]
    20003774:	a8c37bfd 	ldp	x29, x30, [sp], #48
    20003778:	d65f03c0 	ret
    2000377c:	d503201f 	nop

0000000020003780 <xQueueGetMutexHolder>:
    20003780:	a9be7bfd 	stp	x29, x30, [sp, #-32]!
    20003784:	910003fd 	mov	x29, sp
    20003788:	f9000bf3 	str	x19, [sp, #16]
    2000378c:	aa0003f3 	mov	x19, x0
    20003790:	97fffcf0 	bl	20002b50 <vPortEnterCritical>
    20003794:	f9400260 	ldr	x0, [x19]
    20003798:	b50000e0 	cbnz	x0, 200037b4 <xQueueGetMutexHolder+0x34>
    2000379c:	f9400a73 	ldr	x19, [x19, #16]
    200037a0:	97fffc88 	bl	200029c0 <vPortExitCritical>
    200037a4:	aa1303e0 	mov	x0, x19
    200037a8:	f9400bf3 	ldr	x19, [sp, #16]
    200037ac:	a8c27bfd 	ldp	x29, x30, [sp], #32
    200037b0:	d65f03c0 	ret
    200037b4:	97fffc83 	bl	200029c0 <vPortExitCritical>
    200037b8:	d2800013 	mov	x19, #0x0                   	// #0
    200037bc:	aa1303e0 	mov	x0, x19
    200037c0:	f9400bf3 	ldr	x19, [sp, #16]
    200037c4:	a8c27bfd 	ldp	x29, x30, [sp], #32
    200037c8:	d65f03c0 	ret
    200037cc:	d503201f 	nop

00000000200037d0 <xQueueGetMutexHolderFromISR>:
    200037d0:	f9400001 	ldr	x1, [x0]
    200037d4:	b5000061 	cbnz	x1, 200037e0 <xQueueGetMutexHolderFromISR+0x10>
    200037d8:	f9400800 	ldr	x0, [x0, #16]
    200037dc:	d65f03c0 	ret
    200037e0:	d2800000 	mov	x0, #0x0                   	// #0
    200037e4:	d65f03c0 	ret
    200037e8:	d503201f 	nop
    200037ec:	d503201f 	nop

00000000200037f0 <xQueueGenericSend>:
    200037f0:	a9b97bfd 	stp	x29, x30, [sp, #-112]!
    200037f4:	f100087f 	cmp	x3, #0x2
    200037f8:	910003fd 	mov	x29, sp
    200037fc:	a90153f3 	stp	x19, x20, [sp, #16]
    20003800:	aa0003f3 	mov	x19, x0
    20003804:	910183f4 	add	x20, sp, #0x60
    20003808:	a9025bf5 	stp	x21, x22, [sp, #32]
    2000380c:	1a9f17f5 	cset	w21, eq  // eq = none
    20003810:	910163f6 	add	x22, sp, #0x58
    20003814:	a90363f7 	stp	x23, x24, [sp, #48]
    20003818:	91008018 	add	x24, x0, #0x20
    2000381c:	aa0303f7 	mov	x23, x3
    20003820:	a9046bf9 	stp	x25, x26, [sp, #64]
    20003824:	aa0103f9 	mov	x25, x1
    20003828:	d280001a 	mov	x26, #0x0                   	// #0
    2000382c:	f9002fe2 	str	x2, [sp, #88]
    20003830:	97fffcc8 	bl	20002b50 <vPortEnterCritical>
    20003834:	f9403a61 	ldr	x1, [x19, #112]
    20003838:	710002bf 	cmp	w21, #0x0
    2000383c:	f9403e60 	ldr	x0, [x19, #120]
    20003840:	fa400020 	ccmp	x1, x0, #0x0, eq  // eq = none
    20003844:	540004c3 	b.cc	200038dc <xQueueGenericSend+0xec>  // b.lo, b.ul, b.last
    20003848:	f9402fe0 	ldr	x0, [sp, #88]
    2000384c:	b40008c0 	cbz	x0, 20003964 <xQueueGenericSend+0x174>
    20003850:	b40007ba 	cbz	x26, 20003944 <xQueueGenericSend+0x154>
    20003854:	97fffc5b 	bl	200029c0 <vPortExitCritical>
    20003858:	940003d6 	bl	200047b0 <vTaskSuspendAll>
    2000385c:	97fffcbd 	bl	20002b50 <vPortEnterCritical>
    20003860:	39422260 	ldrb	w0, [x19, #136]
    20003864:	13001c00 	sxtb	w0, w0
    20003868:	3100041f 	cmn	w0, #0x1
    2000386c:	54000041 	b.ne	20003874 <xQueueGenericSend+0x84>  // b.any
    20003870:	3902227f 	strb	wzr, [x19, #136]
    20003874:	39422660 	ldrb	w0, [x19, #137]
    20003878:	13001c00 	sxtb	w0, w0
    2000387c:	3100041f 	cmn	w0, #0x1
    20003880:	54000041 	b.ne	20003888 <xQueueGenericSend+0x98>  // b.any
    20003884:	3902267f 	strb	wzr, [x19, #137]
    20003888:	97fffc4e 	bl	200029c0 <vPortExitCritical>
    2000388c:	aa1603e1 	mov	x1, x22
    20003890:	aa1403e0 	mov	x0, x20
    20003894:	9400059b 	bl	20004f00 <xTaskCheckForTimeOut>
    20003898:	b5000760 	cbnz	x0, 20003984 <xQueueGenericSend+0x194>
    2000389c:	97fffcad 	bl	20002b50 <vPortEnterCritical>
    200038a0:	f9403a61 	ldr	x1, [x19, #112]
    200038a4:	f9403e60 	ldr	x0, [x19, #120]
    200038a8:	eb00003f 	cmp	x1, x0
    200038ac:	54000360 	b.eq	20003918 <xQueueGenericSend+0x128>  // b.none
    200038b0:	97fffc44 	bl	200029c0 <vPortExitCritical>
    200038b4:	aa1303e0 	mov	x0, x19
    200038b8:	97ffff36 	bl	20003590 <prvUnlockQueue>
    200038bc:	94000459 	bl	20004a20 <xTaskResumeAll>
    200038c0:	d280003a 	mov	x26, #0x1                   	// #1
    200038c4:	97fffca3 	bl	20002b50 <vPortEnterCritical>
    200038c8:	f9403a61 	ldr	x1, [x19, #112]
    200038cc:	710002bf 	cmp	w21, #0x0
    200038d0:	f9403e60 	ldr	x0, [x19, #120]
    200038d4:	fa400020 	ccmp	x1, x0, #0x0, eq  // eq = none
    200038d8:	54fffb82 	b.cs	20003848 <xQueueGenericSend+0x58>  // b.hs, b.nlast
    200038dc:	aa1903e1 	mov	x1, x25
    200038e0:	aa1703e2 	mov	x2, x23
    200038e4:	aa1303e0 	mov	x0, x19
    200038e8:	97fffed6 	bl	20003440 <prvCopyDataToQueue>
    200038ec:	f9402661 	ldr	x1, [x19, #72]
    200038f0:	b5000301 	cbnz	x1, 20003950 <xQueueGenericSend+0x160>
    200038f4:	b5000340 	cbnz	x0, 2000395c <xQueueGenericSend+0x16c>
    200038f8:	97fffc32 	bl	200029c0 <vPortExitCritical>
    200038fc:	d2800020 	mov	x0, #0x1                   	// #1
    20003900:	a94153f3 	ldp	x19, x20, [sp, #16]
    20003904:	a9425bf5 	ldp	x21, x22, [sp, #32]
    20003908:	a94363f7 	ldp	x23, x24, [sp, #48]
    2000390c:	a9446bf9 	ldp	x25, x26, [sp, #64]
    20003910:	a8c77bfd 	ldp	x29, x30, [sp], #112
    20003914:	d65f03c0 	ret
    20003918:	97fffc2a 	bl	200029c0 <vPortExitCritical>
    2000391c:	f9402fe1 	ldr	x1, [sp, #88]
    20003920:	aa1803e0 	mov	x0, x24
    20003924:	940004db 	bl	20004c90 <vTaskPlaceOnEventList>
    20003928:	aa1303e0 	mov	x0, x19
    2000392c:	97ffff19 	bl	20003590 <prvUnlockQueue>
    20003930:	9400043c 	bl	20004a20 <xTaskResumeAll>
    20003934:	b5fffc60 	cbnz	x0, 200038c0 <xQueueGenericSend+0xd0>
    20003938:	d4000001 	svc	#0x0
    2000393c:	d280003a 	mov	x26, #0x1                   	// #1
    20003940:	17ffffe1 	b	200038c4 <xQueueGenericSend+0xd4>
    20003944:	aa1403e0 	mov	x0, x20
    20003948:	94000566 	bl	20004ee0 <vTaskInternalSetTimeOutState>
    2000394c:	17ffffc2 	b	20003854 <xQueueGenericSend+0x64>
    20003950:	91012260 	add	x0, x19, #0x48
    20003954:	940004ff 	bl	20004d50 <xTaskRemoveFromEventList>
    20003958:	b4fffd00 	cbz	x0, 200038f8 <xQueueGenericSend+0x108>
    2000395c:	d4000001 	svc	#0x0
    20003960:	17ffffe6 	b	200038f8 <xQueueGenericSend+0x108>
    20003964:	97fffc17 	bl	200029c0 <vPortExitCritical>
    20003968:	d2800000 	mov	x0, #0x0                   	// #0
    2000396c:	a94153f3 	ldp	x19, x20, [sp, #16]
    20003970:	a9425bf5 	ldp	x21, x22, [sp, #32]
    20003974:	a94363f7 	ldp	x23, x24, [sp, #48]
    20003978:	a9446bf9 	ldp	x25, x26, [sp, #64]
    2000397c:	a8c77bfd 	ldp	x29, x30, [sp], #112
    20003980:	d65f03c0 	ret
    20003984:	aa1303e0 	mov	x0, x19
    20003988:	97ffff02 	bl	20003590 <prvUnlockQueue>
    2000398c:	94000425 	bl	20004a20 <xTaskResumeAll>
    20003990:	d2800000 	mov	x0, #0x0                   	// #0
    20003994:	a94153f3 	ldp	x19, x20, [sp, #16]
    20003998:	a9425bf5 	ldp	x21, x22, [sp, #32]
    2000399c:	a94363f7 	ldp	x23, x24, [sp, #48]
    200039a0:	a9446bf9 	ldp	x25, x26, [sp, #64]
    200039a4:	a8c77bfd 	ldp	x29, x30, [sp], #112
    200039a8:	d65f03c0 	ret
    200039ac:	d503201f 	nop

00000000200039b0 <xQueueCreateMutex>:
    200039b0:	a9be7bfd 	stp	x29, x30, [sp, #-32]!
    200039b4:	2a0003e2 	mov	w2, w0
    200039b8:	910003fd 	mov	x29, sp
    200039bc:	d2800001 	mov	x1, #0x0                   	// #0
    200039c0:	d2800020 	mov	x0, #0x1                   	// #1
    200039c4:	f9000bf3 	str	x19, [sp, #16]
    200039c8:	97ffff56 	bl	20003720 <xQueueGenericCreate>
    200039cc:	aa0003f3 	mov	x19, x0
    200039d0:	b40000e0 	cbz	x0, 200039ec <xQueueCreateMutex+0x3c>
    200039d4:	d2800003 	mov	x3, #0x0                   	// #0
    200039d8:	d2800002 	mov	x2, #0x0                   	// #0
    200039dc:	f900001f 	str	xzr, [x0]
    200039e0:	d2800001 	mov	x1, #0x0                   	// #0
    200039e4:	a9017c1f 	stp	xzr, xzr, [x0, #16]
    200039e8:	97ffff82 	bl	200037f0 <xQueueGenericSend>
    200039ec:	aa1303e0 	mov	x0, x19
    200039f0:	f9400bf3 	ldr	x19, [sp, #16]
    200039f4:	a8c27bfd 	ldp	x29, x30, [sp], #32
    200039f8:	d65f03c0 	ret
    200039fc:	d503201f 	nop

0000000020003a00 <xQueueGenericSendFromISR>:
    20003a00:	a9bc7bfd 	stp	x29, x30, [sp, #-64]!
    20003a04:	910003fd 	mov	x29, sp
    20003a08:	a90153f3 	stp	x19, x20, [sp, #16]
    20003a0c:	aa0003f3 	mov	x19, x0
    20003a10:	aa0303f4 	mov	x20, x3
    20003a14:	a9025bf5 	stp	x21, x22, [sp, #32]
    20003a18:	aa0103f6 	mov	x22, x1
    20003a1c:	a90363f7 	stp	x23, x24, [sp, #48]
    20003a20:	aa0203f8 	mov	x24, x2
    20003a24:	97fffc37 	bl	20002b00 <uxPortSetInterruptMask>
    20003a28:	aa0003f5 	mov	x21, x0
    20003a2c:	f9403a61 	ldr	x1, [x19, #112]
    20003a30:	f9403e60 	ldr	x0, [x19, #120]
    20003a34:	eb00003f 	cmp	x1, x0
    20003a38:	fa422a84 	ccmp	x20, #0x2, #0x4, cs  // cs = hs, nlast
    20003a3c:	540002c1 	b.ne	20003a94 <xQueueGenericSendFromISR+0x94>  // b.any
    20003a40:	39422677 	ldrb	w23, [x19, #137]
    20003a44:	aa1403e2 	mov	x2, x20
    20003a48:	aa1603e1 	mov	x1, x22
    20003a4c:	aa1303e0 	mov	x0, x19
    20003a50:	f9403a63 	ldr	x3, [x19, #112]
    20003a54:	97fffe7b 	bl	20003440 <prvCopyDataToQueue>
    20003a58:	13001ee0 	sxtb	w0, w23
    20003a5c:	3100041f 	cmn	w0, #0x1
    20003a60:	540002c0 	b.eq	20003ab8 <xQueueGenericSendFromISR+0xb8>  // b.none
    20003a64:	110006f7 	add	w23, w23, #0x1
    20003a68:	d2800034 	mov	x20, #0x1                   	// #1
    20003a6c:	13001ef7 	sxtb	w23, w23
    20003a70:	39022677 	strb	w23, [x19, #137]
    20003a74:	aa1503e0 	mov	x0, x21
    20003a78:	97fffc12 	bl	20002ac0 <vPortClearInterruptMask>
    20003a7c:	aa1403e0 	mov	x0, x20
    20003a80:	a94153f3 	ldp	x19, x20, [sp, #16]
    20003a84:	a9425bf5 	ldp	x21, x22, [sp, #32]
    20003a88:	a94363f7 	ldp	x23, x24, [sp, #48]
    20003a8c:	a8c47bfd 	ldp	x29, x30, [sp], #64
    20003a90:	d65f03c0 	ret
    20003a94:	aa1503e0 	mov	x0, x21
    20003a98:	d2800014 	mov	x20, #0x0                   	// #0
    20003a9c:	97fffc09 	bl	20002ac0 <vPortClearInterruptMask>
    20003aa0:	aa1403e0 	mov	x0, x20
    20003aa4:	a94153f3 	ldp	x19, x20, [sp, #16]
    20003aa8:	a9425bf5 	ldp	x21, x22, [sp, #32]
    20003aac:	a94363f7 	ldp	x23, x24, [sp, #48]
    20003ab0:	a8c47bfd 	ldp	x29, x30, [sp], #64
    20003ab4:	d65f03c0 	ret
    20003ab8:	f9402660 	ldr	x0, [x19, #72]
    20003abc:	b5000140 	cbnz	x0, 20003ae4 <xQueueGenericSendFromISR+0xe4>
    20003ac0:	aa1503e0 	mov	x0, x21
    20003ac4:	d2800034 	mov	x20, #0x1                   	// #1
    20003ac8:	97fffbfe 	bl	20002ac0 <vPortClearInterruptMask>
    20003acc:	aa1403e0 	mov	x0, x20
    20003ad0:	a94153f3 	ldp	x19, x20, [sp, #16]
    20003ad4:	a9425bf5 	ldp	x21, x22, [sp, #32]
    20003ad8:	a94363f7 	ldp	x23, x24, [sp, #48]
    20003adc:	a8c47bfd 	ldp	x29, x30, [sp], #64
    20003ae0:	d65f03c0 	ret
    20003ae4:	91012260 	add	x0, x19, #0x48
    20003ae8:	9400049a 	bl	20004d50 <xTaskRemoveFromEventList>
    20003aec:	f100031f 	cmp	x24, #0x0
    20003af0:	fa401804 	ccmp	x0, #0x0, #0x4, ne  // ne = any
    20003af4:	54fffe60 	b.eq	20003ac0 <xQueueGenericSendFromISR+0xc0>  // b.none
    20003af8:	d2800020 	mov	x0, #0x1                   	// #1
    20003afc:	aa0003f4 	mov	x20, x0
    20003b00:	f9000300 	str	x0, [x24]
    20003b04:	17ffffdc 	b	20003a74 <xQueueGenericSendFromISR+0x74>
    20003b08:	d503201f 	nop
    20003b0c:	d503201f 	nop

0000000020003b10 <xQueueGiveFromISR>:
    20003b10:	a9bd7bfd 	stp	x29, x30, [sp, #-48]!
    20003b14:	910003fd 	mov	x29, sp
    20003b18:	a90153f3 	stp	x19, x20, [sp, #16]
    20003b1c:	aa0003f3 	mov	x19, x0
    20003b20:	a9025bf5 	stp	x21, x22, [sp, #32]
    20003b24:	aa0103f5 	mov	x21, x1
    20003b28:	d2800016 	mov	x22, #0x0                   	// #0
    20003b2c:	97fffbf5 	bl	20002b00 <uxPortSetInterruptMask>
    20003b30:	aa0003f4 	mov	x20, x0
    20003b34:	f9403a62 	ldr	x2, [x19, #112]
    20003b38:	f9403e60 	ldr	x0, [x19, #120]
    20003b3c:	eb02001f 	cmp	x0, x2
    20003b40:	54000169 	b.ls	20003b6c <xQueueGiveFromISR+0x5c>  // b.plast
    20003b44:	39422660 	ldrb	w0, [x19, #137]
    20003b48:	91000442 	add	x2, x2, #0x1
    20003b4c:	f9003a62 	str	x2, [x19, #112]
    20003b50:	13001c01 	sxtb	w1, w0
    20003b54:	3100043f 	cmn	w1, #0x1
    20003b58:	54000180 	b.eq	20003b88 <xQueueGiveFromISR+0x78>  // b.none
    20003b5c:	11000400 	add	w0, w0, #0x1
    20003b60:	d2800036 	mov	x22, #0x1                   	// #1
    20003b64:	13001c00 	sxtb	w0, w0
    20003b68:	39022660 	strb	w0, [x19, #137]
    20003b6c:	aa1403e0 	mov	x0, x20
    20003b70:	97fffbd4 	bl	20002ac0 <vPortClearInterruptMask>
    20003b74:	aa1603e0 	mov	x0, x22
    20003b78:	a94153f3 	ldp	x19, x20, [sp, #16]
    20003b7c:	a9425bf5 	ldp	x21, x22, [sp, #32]
    20003b80:	a8c37bfd 	ldp	x29, x30, [sp], #48
    20003b84:	d65f03c0 	ret
    20003b88:	f9402660 	ldr	x0, [x19, #72]
    20003b8c:	b5000120 	cbnz	x0, 20003bb0 <xQueueGiveFromISR+0xa0>
    20003b90:	aa1403e0 	mov	x0, x20
    20003b94:	d2800036 	mov	x22, #0x1                   	// #1
    20003b98:	97fffbca 	bl	20002ac0 <vPortClearInterruptMask>
    20003b9c:	aa1603e0 	mov	x0, x22
    20003ba0:	a94153f3 	ldp	x19, x20, [sp, #16]
    20003ba4:	a9425bf5 	ldp	x21, x22, [sp, #32]
    20003ba8:	a8c37bfd 	ldp	x29, x30, [sp], #48
    20003bac:	d65f03c0 	ret
    20003bb0:	91012260 	add	x0, x19, #0x48
    20003bb4:	94000467 	bl	20004d50 <xTaskRemoveFromEventList>
    20003bb8:	f10002bf 	cmp	x21, #0x0
    20003bbc:	fa401804 	ccmp	x0, #0x0, #0x4, ne  // ne = any
    20003bc0:	54fffe80 	b.eq	20003b90 <xQueueGiveFromISR+0x80>  // b.none
    20003bc4:	d2800020 	mov	x0, #0x1                   	// #1
    20003bc8:	aa0003f6 	mov	x22, x0
    20003bcc:	f90002a0 	str	x0, [x21]
    20003bd0:	17ffffe7 	b	20003b6c <xQueueGiveFromISR+0x5c>
    20003bd4:	d503201f 	nop
    20003bd8:	d503201f 	nop
    20003bdc:	d503201f 	nop

0000000020003be0 <xQueueReceive>:
    20003be0:	a9ba7bfd 	stp	x29, x30, [sp, #-96]!
    20003be4:	910003fd 	mov	x29, sp
    20003be8:	a90153f3 	stp	x19, x20, [sp, #16]
    20003bec:	aa0003f3 	mov	x19, x0
    20003bf0:	a90363f7 	stp	x23, x24, [sp, #48]
    20003bf4:	aa0103f7 	mov	x23, x1
    20003bf8:	f90027e2 	str	x2, [sp, #72]
    20003bfc:	97fffbd5 	bl	20002b50 <vPortEnterCritical>
    20003c00:	f9403a74 	ldr	x20, [x19, #112]
    20003c04:	b5000854 	cbnz	x20, 20003d0c <xQueueReceive+0x12c>
    20003c08:	a9025bf5 	stp	x21, x22, [sp, #32]
    20003c0c:	f94027e0 	ldr	x0, [sp, #72]
    20003c10:	b4000500 	cbz	x0, 20003cb0 <xQueueReceive+0xd0>
    20003c14:	910143f5 	add	x21, sp, #0x50
    20003c18:	910123f6 	add	x22, sp, #0x48
    20003c1c:	aa1503e0 	mov	x0, x21
    20003c20:	91012278 	add	x24, x19, #0x48
    20003c24:	940004af 	bl	20004ee0 <vTaskInternalSetTimeOutState>
    20003c28:	97fffb66 	bl	200029c0 <vPortExitCritical>
    20003c2c:	940002e1 	bl	200047b0 <vTaskSuspendAll>
    20003c30:	97fffbc8 	bl	20002b50 <vPortEnterCritical>
    20003c34:	39422260 	ldrb	w0, [x19, #136]
    20003c38:	13001c00 	sxtb	w0, w0
    20003c3c:	3100041f 	cmn	w0, #0x1
    20003c40:	54000041 	b.ne	20003c48 <xQueueReceive+0x68>  // b.any
    20003c44:	3902227f 	strb	wzr, [x19, #136]
    20003c48:	39422660 	ldrb	w0, [x19, #137]
    20003c4c:	13001c00 	sxtb	w0, w0
    20003c50:	3100041f 	cmn	w0, #0x1
    20003c54:	54000041 	b.ne	20003c5c <xQueueReceive+0x7c>  // b.any
    20003c58:	3902267f 	strb	wzr, [x19, #137]
    20003c5c:	97fffb59 	bl	200029c0 <vPortExitCritical>
    20003c60:	aa1603e1 	mov	x1, x22
    20003c64:	aa1503e0 	mov	x0, x21
    20003c68:	940004a6 	bl	20004f00 <xTaskCheckForTimeOut>
    20003c6c:	b5000300 	cbnz	x0, 20003ccc <xQueueReceive+0xec>
    20003c70:	97fffbb8 	bl	20002b50 <vPortEnterCritical>
    20003c74:	f9403a60 	ldr	x0, [x19, #112]
    20003c78:	b50003a0 	cbnz	x0, 20003cec <xQueueReceive+0x10c>
    20003c7c:	97fffb51 	bl	200029c0 <vPortExitCritical>
    20003c80:	f94027e1 	ldr	x1, [sp, #72]
    20003c84:	aa1803e0 	mov	x0, x24
    20003c88:	94000402 	bl	20004c90 <vTaskPlaceOnEventList>
    20003c8c:	aa1303e0 	mov	x0, x19
    20003c90:	97fffe40 	bl	20003590 <prvUnlockQueue>
    20003c94:	94000363 	bl	20004a20 <xTaskResumeAll>
    20003c98:	b4000540 	cbz	x0, 20003d40 <xQueueReceive+0x160>
    20003c9c:	97fffbad 	bl	20002b50 <vPortEnterCritical>
    20003ca0:	f9403a74 	ldr	x20, [x19, #112]
    20003ca4:	b5000334 	cbnz	x20, 20003d08 <xQueueReceive+0x128>
    20003ca8:	f94027e0 	ldr	x0, [sp, #72]
    20003cac:	b5fffbe0 	cbnz	x0, 20003c28 <xQueueReceive+0x48>
    20003cb0:	97fffb44 	bl	200029c0 <vPortExitCritical>
    20003cb4:	d2800000 	mov	x0, #0x0                   	// #0
    20003cb8:	a94153f3 	ldp	x19, x20, [sp, #16]
    20003cbc:	a9425bf5 	ldp	x21, x22, [sp, #32]
    20003cc0:	a94363f7 	ldp	x23, x24, [sp, #48]
    20003cc4:	a8c67bfd 	ldp	x29, x30, [sp], #96
    20003cc8:	d65f03c0 	ret
    20003ccc:	aa1303e0 	mov	x0, x19
    20003cd0:	97fffe30 	bl	20003590 <prvUnlockQueue>
    20003cd4:	94000353 	bl	20004a20 <xTaskResumeAll>
    20003cd8:	97fffb9e 	bl	20002b50 <vPortEnterCritical>
    20003cdc:	f9403a60 	ldr	x0, [x19, #112]
    20003ce0:	b4fffe80 	cbz	x0, 20003cb0 <xQueueReceive+0xd0>
    20003ce4:	97fffb37 	bl	200029c0 <vPortExitCritical>
    20003ce8:	17ffffed 	b	20003c9c <xQueueReceive+0xbc>
    20003cec:	97fffb35 	bl	200029c0 <vPortExitCritical>
    20003cf0:	aa1303e0 	mov	x0, x19
    20003cf4:	97fffe27 	bl	20003590 <prvUnlockQueue>
    20003cf8:	9400034a 	bl	20004a20 <xTaskResumeAll>
    20003cfc:	97fffb95 	bl	20002b50 <vPortEnterCritical>
    20003d00:	f9403a74 	ldr	x20, [x19, #112]
    20003d04:	b4fffd34 	cbz	x20, 20003ca8 <xQueueReceive+0xc8>
    20003d08:	a9425bf5 	ldp	x21, x22, [sp, #32]
    20003d0c:	aa1303e0 	mov	x0, x19
    20003d10:	aa1703e1 	mov	x1, x23
    20003d14:	d1000694 	sub	x20, x20, #0x1
    20003d18:	97fffe0e 	bl	20003550 <prvCopyDataFromQueue>
    20003d1c:	f9003a74 	str	x20, [x19, #112]
    20003d20:	f9401260 	ldr	x0, [x19, #32]
    20003d24:	b5000120 	cbnz	x0, 20003d48 <xQueueReceive+0x168>
    20003d28:	97fffb26 	bl	200029c0 <vPortExitCritical>
    20003d2c:	d2800020 	mov	x0, #0x1                   	// #1
    20003d30:	a94153f3 	ldp	x19, x20, [sp, #16]
    20003d34:	a94363f7 	ldp	x23, x24, [sp, #48]
    20003d38:	a8c67bfd 	ldp	x29, x30, [sp], #96
    20003d3c:	d65f03c0 	ret
    20003d40:	d4000001 	svc	#0x0
    20003d44:	17ffffd6 	b	20003c9c <xQueueReceive+0xbc>
    20003d48:	91008260 	add	x0, x19, #0x20
    20003d4c:	94000401 	bl	20004d50 <xTaskRemoveFromEventList>
    20003d50:	b4fffec0 	cbz	x0, 20003d28 <xQueueReceive+0x148>
    20003d54:	d4000001 	svc	#0x0
    20003d58:	17fffff4 	b	20003d28 <xQueueReceive+0x148>
    20003d5c:	d503201f 	nop

0000000020003d60 <xQueueSemaphoreTake>:
    20003d60:	a9ba7bfd 	stp	x29, x30, [sp, #-96]!
    20003d64:	910003fd 	mov	x29, sp
    20003d68:	a90153f3 	stp	x19, x20, [sp, #16]
    20003d6c:	aa0003f3 	mov	x19, x0
    20003d70:	910143f4 	add	x20, sp, #0x50
    20003d74:	a9025bf5 	stp	x21, x22, [sp, #32]
    20003d78:	d2800016 	mov	x22, #0x0                   	// #0
    20003d7c:	910123f5 	add	x21, sp, #0x48
    20003d80:	a90363f7 	stp	x23, x24, [sp, #48]
    20003d84:	91012017 	add	x23, x0, #0x48
    20003d88:	d2800018 	mov	x24, #0x0                   	// #0
    20003d8c:	f90027e1 	str	x1, [sp, #72]
    20003d90:	97fffb70 	bl	20002b50 <vPortEnterCritical>
    20003d94:	f9403a61 	ldr	x1, [x19, #112]
    20003d98:	b5000501 	cbnz	x1, 20003e38 <xQueueSemaphoreTake+0xd8>
    20003d9c:	f94027e0 	ldr	x0, [sp, #72]
    20003da0:	b4000ca0 	cbz	x0, 20003f34 <xQueueSemaphoreTake+0x1d4>
    20003da4:	b4000798 	cbz	x24, 20003e94 <xQueueSemaphoreTake+0x134>
    20003da8:	97fffb06 	bl	200029c0 <vPortExitCritical>
    20003dac:	94000281 	bl	200047b0 <vTaskSuspendAll>
    20003db0:	97fffb68 	bl	20002b50 <vPortEnterCritical>
    20003db4:	39422261 	ldrb	w1, [x19, #136]
    20003db8:	13001c21 	sxtb	w1, w1
    20003dbc:	3100043f 	cmn	w1, #0x1
    20003dc0:	54000041 	b.ne	20003dc8 <xQueueSemaphoreTake+0x68>  // b.any
    20003dc4:	3902227f 	strb	wzr, [x19, #136]
    20003dc8:	39422661 	ldrb	w1, [x19, #137]
    20003dcc:	13001c21 	sxtb	w1, w1
    20003dd0:	3100043f 	cmn	w1, #0x1
    20003dd4:	54000041 	b.ne	20003ddc <xQueueSemaphoreTake+0x7c>  // b.any
    20003dd8:	3902267f 	strb	wzr, [x19, #137]
    20003ddc:	97fffaf9 	bl	200029c0 <vPortExitCritical>
    20003de0:	aa1503e1 	mov	x1, x21
    20003de4:	aa1403e0 	mov	x0, x20
    20003de8:	94000446 	bl	20004f00 <xTaskCheckForTimeOut>
    20003dec:	b5000420 	cbnz	x0, 20003e70 <xQueueSemaphoreTake+0x110>
    20003df0:	97fffb58 	bl	20002b50 <vPortEnterCritical>
    20003df4:	f9403a60 	ldr	x0, [x19, #112]
    20003df8:	b5000540 	cbnz	x0, 20003ea0 <xQueueSemaphoreTake+0x140>
    20003dfc:	97fffaf1 	bl	200029c0 <vPortExitCritical>
    20003e00:	f9400260 	ldr	x0, [x19]
    20003e04:	b40008c0 	cbz	x0, 20003f1c <xQueueSemaphoreTake+0x1bc>
    20003e08:	f94027e1 	ldr	x1, [sp, #72]
    20003e0c:	aa1703e0 	mov	x0, x23
    20003e10:	940003a0 	bl	20004c90 <vTaskPlaceOnEventList>
    20003e14:	aa1303e0 	mov	x0, x19
    20003e18:	97fffdde 	bl	20003590 <prvUnlockQueue>
    20003e1c:	94000301 	bl	20004a20 <xTaskResumeAll>
    20003e20:	b5000040 	cbnz	x0, 20003e28 <xQueueSemaphoreTake+0xc8>
    20003e24:	d4000001 	svc	#0x0
    20003e28:	d2800038 	mov	x24, #0x1                   	// #1
    20003e2c:	97fffb49 	bl	20002b50 <vPortEnterCritical>
    20003e30:	f9403a61 	ldr	x1, [x19, #112]
    20003e34:	b4fffb41 	cbz	x1, 20003d9c <xQueueSemaphoreTake+0x3c>
    20003e38:	d1000421 	sub	x1, x1, #0x1
    20003e3c:	f9400260 	ldr	x0, [x19]
    20003e40:	f9003a61 	str	x1, [x19, #112]
    20003e44:	b4000920 	cbz	x0, 20003f68 <xQueueSemaphoreTake+0x208>
    20003e48:	f9401260 	ldr	x0, [x19, #32]
    20003e4c:	b5000840 	cbnz	x0, 20003f54 <xQueueSemaphoreTake+0x1f4>
    20003e50:	97fffadc 	bl	200029c0 <vPortExitCritical>
    20003e54:	d2800036 	mov	x22, #0x1                   	// #1
    20003e58:	a94153f3 	ldp	x19, x20, [sp, #16]
    20003e5c:	aa1603e0 	mov	x0, x22
    20003e60:	a9425bf5 	ldp	x21, x22, [sp, #32]
    20003e64:	a94363f7 	ldp	x23, x24, [sp, #48]
    20003e68:	a8c67bfd 	ldp	x29, x30, [sp], #96
    20003e6c:	d65f03c0 	ret
    20003e70:	aa1303e0 	mov	x0, x19
    20003e74:	97fffdc7 	bl	20003590 <prvUnlockQueue>
    20003e78:	940002ea 	bl	20004a20 <xTaskResumeAll>
    20003e7c:	97fffb35 	bl	20002b50 <vPortEnterCritical>
    20003e80:	f9403a60 	ldr	x0, [x19, #112]
    20003e84:	b40001a0 	cbz	x0, 20003eb8 <xQueueSemaphoreTake+0x158>
    20003e88:	d2800038 	mov	x24, #0x1                   	// #1
    20003e8c:	97fffacd 	bl	200029c0 <vPortExitCritical>
    20003e90:	17ffffe7 	b	20003e2c <xQueueSemaphoreTake+0xcc>
    20003e94:	aa1403e0 	mov	x0, x20
    20003e98:	94000412 	bl	20004ee0 <vTaskInternalSetTimeOutState>
    20003e9c:	17ffffc3 	b	20003da8 <xQueueSemaphoreTake+0x48>
    20003ea0:	97fffac8 	bl	200029c0 <vPortExitCritical>
    20003ea4:	aa1303e0 	mov	x0, x19
    20003ea8:	d2800038 	mov	x24, #0x1                   	// #1
    20003eac:	97fffdb9 	bl	20003590 <prvUnlockQueue>
    20003eb0:	940002dc 	bl	20004a20 <xTaskResumeAll>
    20003eb4:	17ffffde 	b	20003e2c <xQueueSemaphoreTake+0xcc>
    20003eb8:	97fffac2 	bl	200029c0 <vPortExitCritical>
    20003ebc:	b50000f6 	cbnz	x22, 20003ed8 <xQueueSemaphoreTake+0x178>
    20003ec0:	aa1603e0 	mov	x0, x22
    20003ec4:	a94153f3 	ldp	x19, x20, [sp, #16]
    20003ec8:	a9425bf5 	ldp	x21, x22, [sp, #32]
    20003ecc:	a94363f7 	ldp	x23, x24, [sp, #48]
    20003ed0:	a8c67bfd 	ldp	x29, x30, [sp], #96
    20003ed4:	d65f03c0 	ret
    20003ed8:	97fffb1e 	bl	20002b50 <vPortEnterCritical>
    20003edc:	f9402661 	ldr	x1, [x19, #72]
    20003ee0:	b40000a1 	cbz	x1, 20003ef4 <xQueueSemaphoreTake+0x194>
    20003ee4:	f9403260 	ldr	x0, [x19, #96]
    20003ee8:	d2800101 	mov	x1, #0x8                   	// #8
    20003eec:	f9400000 	ldr	x0, [x0]
    20003ef0:	cb000021 	sub	x1, x1, x0
    20003ef4:	f9400a60 	ldr	x0, [x19, #16]
    20003ef8:	d2800016 	mov	x22, #0x0                   	// #0
    20003efc:	940004c9 	bl	20005220 <vTaskPriorityDisinheritAfterTimeout>
    20003f00:	97fffab0 	bl	200029c0 <vPortExitCritical>
    20003f04:	aa1603e0 	mov	x0, x22
    20003f08:	a94153f3 	ldp	x19, x20, [sp, #16]
    20003f0c:	a9425bf5 	ldp	x21, x22, [sp, #32]
    20003f10:	a94363f7 	ldp	x23, x24, [sp, #48]
    20003f14:	a8c67bfd 	ldp	x29, x30, [sp], #96
    20003f18:	d65f03c0 	ret
    20003f1c:	97fffb0d 	bl	20002b50 <vPortEnterCritical>
    20003f20:	f9400a60 	ldr	x0, [x19, #16]
    20003f24:	9400043b 	bl	20005010 <xTaskPriorityInherit>
    20003f28:	aa0003f6 	mov	x22, x0
    20003f2c:	97fffaa5 	bl	200029c0 <vPortExitCritical>
    20003f30:	17ffffb6 	b	20003e08 <xQueueSemaphoreTake+0xa8>
    20003f34:	97fffaa3 	bl	200029c0 <vPortExitCritical>
    20003f38:	d2800016 	mov	x22, #0x0                   	// #0
    20003f3c:	a94153f3 	ldp	x19, x20, [sp, #16]
    20003f40:	aa1603e0 	mov	x0, x22
    20003f44:	a9425bf5 	ldp	x21, x22, [sp, #32]
    20003f48:	a94363f7 	ldp	x23, x24, [sp, #48]
    20003f4c:	a8c67bfd 	ldp	x29, x30, [sp], #96
    20003f50:	d65f03c0 	ret
    20003f54:	91008260 	add	x0, x19, #0x20
    20003f58:	9400037e 	bl	20004d50 <xTaskRemoveFromEventList>
    20003f5c:	b4fff7a0 	cbz	x0, 20003e50 <xQueueSemaphoreTake+0xf0>
    20003f60:	d4000001 	svc	#0x0
    20003f64:	17ffffbb 	b	20003e50 <xQueueSemaphoreTake+0xf0>
    20003f68:	940004fa 	bl	20005350 <pvTaskIncrementMutexHeldCount>
    20003f6c:	f9000a60 	str	x0, [x19, #16]
    20003f70:	17ffffb6 	b	20003e48 <xQueueSemaphoreTake+0xe8>
    20003f74:	d503201f 	nop
    20003f78:	d503201f 	nop
    20003f7c:	d503201f 	nop

0000000020003f80 <xQueuePeek>:
    20003f80:	a9ba7bfd 	stp	x29, x30, [sp, #-96]!
    20003f84:	910003fd 	mov	x29, sp
    20003f88:	a90153f3 	stp	x19, x20, [sp, #16]
    20003f8c:	aa0003f3 	mov	x19, x0
    20003f90:	a9025bf5 	stp	x21, x22, [sp, #32]
    20003f94:	aa0103f6 	mov	x22, x1
    20003f98:	f90027e2 	str	x2, [sp, #72]
    20003f9c:	97fffaed 	bl	20002b50 <vPortEnterCritical>
    20003fa0:	f9403a60 	ldr	x0, [x19, #112]
    20003fa4:	b5000860 	cbnz	x0, 200040b0 <xQueuePeek+0x130>
    20003fa8:	f9001bf7 	str	x23, [sp, #48]
    20003fac:	f94027e0 	ldr	x0, [sp, #72]
    20003fb0:	b4000520 	cbz	x0, 20004054 <xQueuePeek+0xd4>
    20003fb4:	910143f4 	add	x20, sp, #0x50
    20003fb8:	910123f5 	add	x21, sp, #0x48
    20003fbc:	aa1403e0 	mov	x0, x20
    20003fc0:	91012277 	add	x23, x19, #0x48
    20003fc4:	940003c7 	bl	20004ee0 <vTaskInternalSetTimeOutState>
    20003fc8:	97fffa7e 	bl	200029c0 <vPortExitCritical>
    20003fcc:	940001f9 	bl	200047b0 <vTaskSuspendAll>
    20003fd0:	97fffae0 	bl	20002b50 <vPortEnterCritical>
    20003fd4:	39422260 	ldrb	w0, [x19, #136]
    20003fd8:	13001c00 	sxtb	w0, w0
    20003fdc:	3100041f 	cmn	w0, #0x1
    20003fe0:	54000041 	b.ne	20003fe8 <xQueuePeek+0x68>  // b.any
    20003fe4:	3902227f 	strb	wzr, [x19, #136]
    20003fe8:	39422660 	ldrb	w0, [x19, #137]
    20003fec:	13001c00 	sxtb	w0, w0
    20003ff0:	3100041f 	cmn	w0, #0x1
    20003ff4:	54000041 	b.ne	20003ffc <xQueuePeek+0x7c>  // b.any
    20003ff8:	3902267f 	strb	wzr, [x19, #137]
    20003ffc:	97fffa71 	bl	200029c0 <vPortExitCritical>
    20004000:	aa1503e1 	mov	x1, x21
    20004004:	aa1403e0 	mov	x0, x20
    20004008:	940003be 	bl	20004f00 <xTaskCheckForTimeOut>
    2000400c:	b5000320 	cbnz	x0, 20004070 <xQueuePeek+0xf0>
    20004010:	97fffad0 	bl	20002b50 <vPortEnterCritical>
    20004014:	f9403a60 	ldr	x0, [x19, #112]
    20004018:	b50003c0 	cbnz	x0, 20004090 <xQueuePeek+0x110>
    2000401c:	97fffa69 	bl	200029c0 <vPortExitCritical>
    20004020:	f94027e1 	ldr	x1, [sp, #72]
    20004024:	aa1703e0 	mov	x0, x23
    20004028:	9400031a 	bl	20004c90 <vTaskPlaceOnEventList>
    2000402c:	aa1303e0 	mov	x0, x19
    20004030:	97fffd58 	bl	20003590 <prvUnlockQueue>
    20004034:	9400027b 	bl	20004a20 <xTaskResumeAll>
    20004038:	b4000360 	cbz	x0, 200040a4 <xQueuePeek+0x124>
    2000403c:	d503201f 	nop
    20004040:	97fffac4 	bl	20002b50 <vPortEnterCritical>
    20004044:	f9403a60 	ldr	x0, [x19, #112]
    20004048:	b5000320 	cbnz	x0, 200040ac <xQueuePeek+0x12c>
    2000404c:	f94027e0 	ldr	x0, [sp, #72]
    20004050:	b5fffbc0 	cbnz	x0, 20003fc8 <xQueuePeek+0x48>
    20004054:	97fffa5b 	bl	200029c0 <vPortExitCritical>
    20004058:	d2800000 	mov	x0, #0x0                   	// #0
    2000405c:	a94153f3 	ldp	x19, x20, [sp, #16]
    20004060:	a9425bf5 	ldp	x21, x22, [sp, #32]
    20004064:	f9401bf7 	ldr	x23, [sp, #48]
    20004068:	a8c67bfd 	ldp	x29, x30, [sp], #96
    2000406c:	d65f03c0 	ret
    20004070:	aa1303e0 	mov	x0, x19
    20004074:	97fffd47 	bl	20003590 <prvUnlockQueue>
    20004078:	9400026a 	bl	20004a20 <xTaskResumeAll>
    2000407c:	97fffab5 	bl	20002b50 <vPortEnterCritical>
    20004080:	f9403a60 	ldr	x0, [x19, #112]
    20004084:	b4fffe80 	cbz	x0, 20004054 <xQueuePeek+0xd4>
    20004088:	97fffa4e 	bl	200029c0 <vPortExitCritical>
    2000408c:	17ffffed 	b	20004040 <xQueuePeek+0xc0>
    20004090:	97fffa4c 	bl	200029c0 <vPortExitCritical>
    20004094:	aa1303e0 	mov	x0, x19
    20004098:	97fffd3e 	bl	20003590 <prvUnlockQueue>
    2000409c:	94000261 	bl	20004a20 <xTaskResumeAll>
    200040a0:	17ffffe8 	b	20004040 <xQueuePeek+0xc0>
    200040a4:	d4000001 	svc	#0x0
    200040a8:	17ffffe6 	b	20004040 <xQueuePeek+0xc0>
    200040ac:	f9401bf7 	ldr	x23, [sp, #48]
    200040b0:	aa1303e0 	mov	x0, x19
    200040b4:	aa1603e1 	mov	x1, x22
    200040b8:	f9400e74 	ldr	x20, [x19, #24]
    200040bc:	97fffd25 	bl	20003550 <prvCopyDataFromQueue>
    200040c0:	f9402660 	ldr	x0, [x19, #72]
    200040c4:	f9000e74 	str	x20, [x19, #24]
    200040c8:	b50000e0 	cbnz	x0, 200040e4 <xQueuePeek+0x164>
    200040cc:	97fffa3d 	bl	200029c0 <vPortExitCritical>
    200040d0:	d2800020 	mov	x0, #0x1                   	// #1
    200040d4:	a94153f3 	ldp	x19, x20, [sp, #16]
    200040d8:	a9425bf5 	ldp	x21, x22, [sp, #32]
    200040dc:	a8c67bfd 	ldp	x29, x30, [sp], #96
    200040e0:	d65f03c0 	ret
    200040e4:	91012260 	add	x0, x19, #0x48
    200040e8:	9400031a 	bl	20004d50 <xTaskRemoveFromEventList>
    200040ec:	b4ffff00 	cbz	x0, 200040cc <xQueuePeek+0x14c>
    200040f0:	d4000001 	svc	#0x0
    200040f4:	17fffff6 	b	200040cc <xQueuePeek+0x14c>
    200040f8:	d503201f 	nop
    200040fc:	d503201f 	nop

0000000020004100 <xQueueReceiveFromISR>:
    20004100:	a9bc7bfd 	stp	x29, x30, [sp, #-64]!
    20004104:	910003fd 	mov	x29, sp
    20004108:	a90153f3 	stp	x19, x20, [sp, #16]
    2000410c:	aa0003f3 	mov	x19, x0
    20004110:	a9025bf5 	stp	x21, x22, [sp, #32]
    20004114:	aa0103f5 	mov	x21, x1
    20004118:	a90363f7 	stp	x23, x24, [sp, #48]
    2000411c:	aa0203f7 	mov	x23, x2
    20004120:	97fffa78 	bl	20002b00 <uxPortSetInterruptMask>
    20004124:	f9403a76 	ldr	x22, [x19, #112]
    20004128:	aa0003f4 	mov	x20, x0
    2000412c:	b5000156 	cbnz	x22, 20004154 <xQueueReceiveFromISR+0x54>
    20004130:	d2800015 	mov	x21, #0x0                   	// #0
    20004134:	aa1403e0 	mov	x0, x20
    20004138:	97fffa62 	bl	20002ac0 <vPortClearInterruptMask>
    2000413c:	aa1503e0 	mov	x0, x21
    20004140:	a94153f3 	ldp	x19, x20, [sp, #16]
    20004144:	a9425bf5 	ldp	x21, x22, [sp, #32]
    20004148:	a94363f7 	ldp	x23, x24, [sp, #48]
    2000414c:	a8c47bfd 	ldp	x29, x30, [sp], #64
    20004150:	d65f03c0 	ret
    20004154:	39422278 	ldrb	w24, [x19, #136]
    20004158:	aa1303e0 	mov	x0, x19
    2000415c:	aa1503e1 	mov	x1, x21
    20004160:	97fffcfc 	bl	20003550 <prvCopyDataFromQueue>
    20004164:	d10006d6 	sub	x22, x22, #0x1
    20004168:	f9003a76 	str	x22, [x19, #112]
    2000416c:	13001f00 	sxtb	w0, w24
    20004170:	3100041f 	cmn	w0, #0x1
    20004174:	540001a0 	b.eq	200041a8 <xQueueReceiveFromISR+0xa8>  // b.none
    20004178:	11000718 	add	w24, w24, #0x1
    2000417c:	aa1403e0 	mov	x0, x20
    20004180:	13001f18 	sxtb	w24, w24
    20004184:	d2800035 	mov	x21, #0x1                   	// #1
    20004188:	39022278 	strb	w24, [x19, #136]
    2000418c:	97fffa4d 	bl	20002ac0 <vPortClearInterruptMask>
    20004190:	aa1503e0 	mov	x0, x21
    20004194:	a94153f3 	ldp	x19, x20, [sp, #16]
    20004198:	a9425bf5 	ldp	x21, x22, [sp, #32]
    2000419c:	a94363f7 	ldp	x23, x24, [sp, #48]
    200041a0:	a8c47bfd 	ldp	x29, x30, [sp], #64
    200041a4:	d65f03c0 	ret
    200041a8:	f9401260 	ldr	x0, [x19, #32]
    200041ac:	b5000060 	cbnz	x0, 200041b8 <xQueueReceiveFromISR+0xb8>
    200041b0:	d2800035 	mov	x21, #0x1                   	// #1
    200041b4:	17ffffe0 	b	20004134 <xQueueReceiveFromISR+0x34>
    200041b8:	91008260 	add	x0, x19, #0x20
    200041bc:	940002e5 	bl	20004d50 <xTaskRemoveFromEventList>
    200041c0:	f10002ff 	cmp	x23, #0x0
    200041c4:	fa401804 	ccmp	x0, #0x0, #0x4, ne  // ne = any
    200041c8:	54ffff40 	b.eq	200041b0 <xQueueReceiveFromISR+0xb0>  // b.none
    200041cc:	d2800020 	mov	x0, #0x1                   	// #1
    200041d0:	aa0003f5 	mov	x21, x0
    200041d4:	f90002e0 	str	x0, [x23]
    200041d8:	17ffffd7 	b	20004134 <xQueueReceiveFromISR+0x34>
    200041dc:	d503201f 	nop

00000000200041e0 <xQueuePeekFromISR>:
    200041e0:	a9bd7bfd 	stp	x29, x30, [sp, #-48]!
    200041e4:	910003fd 	mov	x29, sp
    200041e8:	a90153f3 	stp	x19, x20, [sp, #16]
    200041ec:	aa0003f3 	mov	x19, x0
    200041f0:	a9025bf5 	stp	x21, x22, [sp, #32]
    200041f4:	aa0103f5 	mov	x21, x1
    200041f8:	97fffa42 	bl	20002b00 <uxPortSetInterruptMask>
    200041fc:	f9403a61 	ldr	x1, [x19, #112]
    20004200:	aa0003f4 	mov	x20, x0
    20004204:	b5000121 	cbnz	x1, 20004228 <xQueuePeekFromISR+0x48>
    20004208:	aa1403e0 	mov	x0, x20
    2000420c:	d2800015 	mov	x21, #0x0                   	// #0
    20004210:	97fffa2c 	bl	20002ac0 <vPortClearInterruptMask>
    20004214:	aa1503e0 	mov	x0, x21
    20004218:	a94153f3 	ldp	x19, x20, [sp, #16]
    2000421c:	a9425bf5 	ldp	x21, x22, [sp, #32]
    20004220:	a8c37bfd 	ldp	x29, x30, [sp], #48
    20004224:	d65f03c0 	ret
    20004228:	f9400e76 	ldr	x22, [x19, #24]
    2000422c:	aa1503e1 	mov	x1, x21
    20004230:	aa1303e0 	mov	x0, x19
    20004234:	97fffcc7 	bl	20003550 <prvCopyDataFromQueue>
    20004238:	aa1403e0 	mov	x0, x20
    2000423c:	d2800035 	mov	x21, #0x1                   	// #1
    20004240:	f9000e76 	str	x22, [x19, #24]
    20004244:	97fffa1f 	bl	20002ac0 <vPortClearInterruptMask>
    20004248:	aa1503e0 	mov	x0, x21
    2000424c:	a94153f3 	ldp	x19, x20, [sp, #16]
    20004250:	a9425bf5 	ldp	x21, x22, [sp, #32]
    20004254:	a8c37bfd 	ldp	x29, x30, [sp], #48
    20004258:	d65f03c0 	ret
    2000425c:	d503201f 	nop

0000000020004260 <uxQueueMessagesWaiting>:
    20004260:	a9be7bfd 	stp	x29, x30, [sp, #-32]!
    20004264:	910003fd 	mov	x29, sp
    20004268:	f9000bf3 	str	x19, [sp, #16]
    2000426c:	aa0003f3 	mov	x19, x0
    20004270:	97fffa38 	bl	20002b50 <vPortEnterCritical>
    20004274:	f9403a73 	ldr	x19, [x19, #112]
    20004278:	97fff9d2 	bl	200029c0 <vPortExitCritical>
    2000427c:	aa1303e0 	mov	x0, x19
    20004280:	f9400bf3 	ldr	x19, [sp, #16]
    20004284:	a8c27bfd 	ldp	x29, x30, [sp], #32
    20004288:	d65f03c0 	ret
    2000428c:	d503201f 	nop

0000000020004290 <uxQueueSpacesAvailable>:
    20004290:	a9be7bfd 	stp	x29, x30, [sp, #-32]!
    20004294:	910003fd 	mov	x29, sp
    20004298:	f9000bf3 	str	x19, [sp, #16]
    2000429c:	aa0003f3 	mov	x19, x0
    200042a0:	97fffa2c 	bl	20002b50 <vPortEnterCritical>
    200042a4:	f9403a60 	ldr	x0, [x19, #112]
    200042a8:	f9403e73 	ldr	x19, [x19, #120]
    200042ac:	cb000273 	sub	x19, x19, x0
    200042b0:	97fff9c4 	bl	200029c0 <vPortExitCritical>
    200042b4:	aa1303e0 	mov	x0, x19
    200042b8:	f9400bf3 	ldr	x19, [sp, #16]
    200042bc:	a8c27bfd 	ldp	x29, x30, [sp], #32
    200042c0:	d65f03c0 	ret
    200042c4:	d503201f 	nop
    200042c8:	d503201f 	nop
    200042cc:	d503201f 	nop

00000000200042d0 <uxQueueMessagesWaitingFromISR>:
    200042d0:	f9403800 	ldr	x0, [x0, #112]
    200042d4:	d65f03c0 	ret
    200042d8:	d503201f 	nop
    200042dc:	d503201f 	nop

00000000200042e0 <vQueueDelete>:
    200042e0:	14000804 	b	200062f0 <vPortFree>
    200042e4:	d503201f 	nop
    200042e8:	d503201f 	nop
    200042ec:	d503201f 	nop

00000000200042f0 <xQueueIsQueueEmptyFromISR>:
    200042f0:	f9403800 	ldr	x0, [x0, #112]
    200042f4:	f100001f 	cmp	x0, #0x0
    200042f8:	9a9f17e0 	cset	x0, eq  // eq = none
    200042fc:	d65f03c0 	ret

0000000020004300 <xQueueIsQueueFullFromISR>:
    20004300:	f9403801 	ldr	x1, [x0, #112]
    20004304:	f9403c00 	ldr	x0, [x0, #120]
    20004308:	eb01001f 	cmp	x0, x1
    2000430c:	9a9f17e0 	cset	x0, eq  // eq = none
    20004310:	d65f03c0 	ret
    20004314:	d503201f 	nop
    20004318:	d503201f 	nop
    2000431c:	d503201f 	nop

0000000020004320 <vQueueWaitForMessageRestricted>:
    20004320:	a9bd7bfd 	stp	x29, x30, [sp, #-48]!
    20004324:	910003fd 	mov	x29, sp
    20004328:	a90153f3 	stp	x19, x20, [sp, #16]
    2000432c:	aa0003f3 	mov	x19, x0
    20004330:	aa0103f4 	mov	x20, x1
    20004334:	f90013f5 	str	x21, [sp, #32]
    20004338:	aa0203f5 	mov	x21, x2
    2000433c:	97fffa05 	bl	20002b50 <vPortEnterCritical>
    20004340:	39422260 	ldrb	w0, [x19, #136]
    20004344:	13001c00 	sxtb	w0, w0
    20004348:	3100041f 	cmn	w0, #0x1
    2000434c:	54000041 	b.ne	20004354 <vQueueWaitForMessageRestricted+0x34>  // b.any
    20004350:	3902227f 	strb	wzr, [x19, #136]
    20004354:	39422660 	ldrb	w0, [x19, #137]
    20004358:	13001c00 	sxtb	w0, w0
    2000435c:	3100041f 	cmn	w0, #0x1
    20004360:	54000041 	b.ne	20004368 <vQueueWaitForMessageRestricted+0x48>  // b.any
    20004364:	3902267f 	strb	wzr, [x19, #137]
    20004368:	97fff996 	bl	200029c0 <vPortExitCritical>
    2000436c:	f9403a60 	ldr	x0, [x19, #112]
    20004370:	b40000c0 	cbz	x0, 20004388 <vQueueWaitForMessageRestricted+0x68>
    20004374:	aa1303e0 	mov	x0, x19
    20004378:	a94153f3 	ldp	x19, x20, [sp, #16]
    2000437c:	f94013f5 	ldr	x21, [sp, #32]
    20004380:	a8c37bfd 	ldp	x29, x30, [sp], #48
    20004384:	17fffc83 	b	20003590 <prvUnlockQueue>
    20004388:	aa1503e2 	mov	x2, x21
    2000438c:	aa1403e1 	mov	x1, x20
    20004390:	91012260 	add	x0, x19, #0x48
    20004394:	9400025f 	bl	20004d10 <vTaskPlaceOnEventListRestricted>
    20004398:	aa1303e0 	mov	x0, x19
    2000439c:	a94153f3 	ldp	x19, x20, [sp, #16]
    200043a0:	f94013f5 	ldr	x21, [sp, #32]
    200043a4:	a8c37bfd 	ldp	x29, x30, [sp], #48
    200043a8:	17fffc7a 	b	20003590 <prvUnlockQueue>
    200043ac:	00000000 	.inst	0x00000000 ; undefined

00000000200043b0 <prvIdleTask>:
    200043b0:	a9be7bfd 	stp	x29, x30, [sp, #-32]!
    200043b4:	910003fd 	mov	x29, sp
    200043b8:	f9000bf3 	str	x19, [sp, #16]
    200043bc:	90000033 	adrp	x19, 20008000 <__bss_start>
    200043c0:	f9439660 	ldr	x0, [x19, #1832]
    200043c4:	f100041f 	cmp	x0, #0x1
    200043c8:	54000049 	b.ls	200043d0 <prvIdleTask+0x20>  // b.plast
    200043cc:	d4000001 	svc	#0x0
    200043d0:	97fff5dc 	bl	20001b40 <vApplicationIdleHook>
    200043d4:	17fffffb 	b	200043c0 <prvIdleTask+0x10>
    200043d8:	d503201f 	nop
    200043dc:	d503201f 	nop

00000000200043e0 <prvAddCurrentTaskToDelayedList.isra.0>:
    200043e0:	a9bc7bfd 	stp	x29, x30, [sp, #-64]!
    200043e4:	910003fd 	mov	x29, sp
    200043e8:	a90153f3 	stp	x19, x20, [sp, #16]
    200043ec:	f0000013 	adrp	x19, 20007000 <pt_config>
    200043f0:	a90363f7 	stp	x23, x24, [sp, #48]
    200043f4:	f940aa78 	ldr	x24, [x19, #336]
    200043f8:	a9025bf5 	stp	x21, x22, [sp, #32]
    200043fc:	90000035 	adrp	x21, 20008000 <__bss_start>
    20004400:	911ca2b7 	add	x23, x21, #0x728
    20004404:	aa0003f6 	mov	x22, x0
    20004408:	f940a2f4 	ldr	x20, [x23, #320]
    2000440c:	f9400300 	ldr	x0, [x24]
    20004410:	91002000 	add	x0, x0, #0x8
    20004414:	97fffbf7 	bl	200033f0 <uxListRemove>
    20004418:	b5000100 	cbnz	x0, 20004438 <prvAddCurrentTaskToDelayedList.isra.0+0x58>
    2000441c:	f9400302 	ldr	x2, [x24]
    20004420:	d2800020 	mov	x0, #0x1                   	// #1
    20004424:	f940a6e1 	ldr	x1, [x23, #328]
    20004428:	f9402c42 	ldr	x2, [x2, #88]
    2000442c:	9ac22000 	lsl	x0, x0, x2
    20004430:	8a200020 	bic	x0, x1, x0
    20004434:	f900a6e0 	str	x0, [x23, #328]
    20004438:	f940aa73 	ldr	x19, [x19, #336]
    2000443c:	ab160294 	adds	x20, x20, x22
    20004440:	911ca2b5 	add	x21, x21, #0x728
    20004444:	f9400260 	ldr	x0, [x19]
    20004448:	f9000414 	str	x20, [x0, #8]
    2000444c:	54000123 	b.cc	20004470 <prvAddCurrentTaskToDelayedList.isra.0+0x90>  // b.lo, b.ul, b.last
    20004450:	f940aaa0 	ldr	x0, [x21, #336]
    20004454:	a9425bf5 	ldp	x21, x22, [sp, #32]
    20004458:	a94363f7 	ldp	x23, x24, [sp, #48]
    2000445c:	f9400261 	ldr	x1, [x19]
    20004460:	a94153f3 	ldp	x19, x20, [sp, #16]
    20004464:	a8c47bfd 	ldp	x29, x30, [sp], #64
    20004468:	91002021 	add	x1, x1, #0x8
    2000446c:	17fffbc9 	b	20003390 <vListInsert>
    20004470:	f940aea0 	ldr	x0, [x21, #344]
    20004474:	f9400261 	ldr	x1, [x19]
    20004478:	91002021 	add	x1, x1, #0x8
    2000447c:	97fffbc5 	bl	20003390 <vListInsert>
    20004480:	f940b2a0 	ldr	x0, [x21, #352]
    20004484:	eb00029f 	cmp	x20, x0
    20004488:	54000042 	b.cs	20004490 <prvAddCurrentTaskToDelayedList.isra.0+0xb0>  // b.hs, b.nlast
    2000448c:	f900b2b4 	str	x20, [x21, #352]
    20004490:	a94153f3 	ldp	x19, x20, [sp, #16]
    20004494:	a9425bf5 	ldp	x21, x22, [sp, #32]
    20004498:	a94363f7 	ldp	x23, x24, [sp, #48]
    2000449c:	a8c47bfd 	ldp	x29, x30, [sp], #64
    200044a0:	d65f03c0 	ret
    200044a4:	d503201f 	nop
    200044a8:	d503201f 	nop
    200044ac:	d503201f 	nop

00000000200044b0 <xTaskCreate>:
    200044b0:	a9ba7bfd 	stp	x29, x30, [sp, #-96]!
    200044b4:	910003fd 	mov	x29, sp
    200044b8:	a90363f7 	stp	x23, x24, [sp, #48]
    200044bc:	aa0003f8 	mov	x24, x0
    200044c0:	d37d3c40 	ubfiz	x0, x2, #3, #16
    200044c4:	aa0503f7 	mov	x23, x5
    200044c8:	a90153f3 	stp	x19, x20, [sp, #16]
    200044cc:	aa0103f4 	mov	x20, x1
    200044d0:	a9025bf5 	stp	x21, x22, [sp, #32]
    200044d4:	aa0403f6 	mov	x22, x4
    200044d8:	a9046bf9 	stp	x25, x26, [sp, #64]
    200044dc:	aa0303f9 	mov	x25, x3
    200044e0:	12003c5a 	and	w26, w2, #0xffff
    200044e4:	9400071f 	bl	20006160 <pvPortMalloc>
    200044e8:	b4000c20 	cbz	x0, 2000466c <xTaskCreate+0x1bc>
    200044ec:	aa0003f5 	mov	x21, x0
    200044f0:	d2801200 	mov	x0, #0x90                  	// #144
    200044f4:	9400071b 	bl	20006160 <pvPortMalloc>
    200044f8:	aa0003f3 	mov	x19, x0
    200044fc:	b4000c60 	cbz	x0, 20004688 <xTaskCreate+0x1d8>
    20004500:	f9002bfb 	str	x27, [sp, #80]
    20004504:	d2800002 	mov	x2, #0x0                   	// #0
    20004508:	9101a001 	add	x1, x0, #0x68
    2000450c:	f9003015 	str	x21, [x0, #96]
    20004510:	b4000d14 	cbz	x20, 200046b0 <xTaskCreate+0x200>
    20004514:	d503201f 	nop
    20004518:	38626a80 	ldrb	w0, [x20, x2]
    2000451c:	38226820 	strb	w0, [x1, x2]
    20004520:	38626a80 	ldrb	w0, [x20, x2]
    20004524:	91000442 	add	x2, x2, #0x1
    20004528:	f100405f 	cmp	x2, #0x10
    2000452c:	34000040 	cbz	w0, 20004534 <xTaskCreate+0x84>
    20004530:	54ffff41 	b.ne	20004518 <xTaskCreate+0x68>  // b.any
    20004534:	3901de7f 	strb	wzr, [x19, #119]
    20004538:	9100227b 	add	x27, x19, #0x8
    2000453c:	f1001edf 	cmp	x22, #0x7
    20004540:	d28000e4 	mov	x4, #0x7                   	// #7
    20004544:	aa1b03e0 	mov	x0, x27
    20004548:	9a8492d6 	csel	x22, x22, x4, ls  // ls = plast
    2000454c:	f9002e76 	str	x22, [x19, #88]
    20004550:	a907fe76 	stp	x22, xzr, [x19, #120]
    20004554:	97fffb7f 	bl	20003350 <vListInitialiseItem>
    20004558:	9100c260 	add	x0, x19, #0x30
    2000455c:	97fffb7d 	bl	20003350 <vListInitialiseItem>
    20004560:	d2800101 	mov	x1, #0x8                   	// #8
    20004564:	51000740 	sub	w0, w26, #0x1
    20004568:	b9008a7f 	str	wzr, [x19, #136]
    2000456c:	cb160036 	sub	x22, x1, x22
    20004570:	8b000ea0 	add	x0, x21, x0, lsl #3
    20004574:	aa1903e2 	mov	x2, x25
    20004578:	aa1803e1 	mov	x1, x24
    2000457c:	f9001273 	str	x19, [x19, #32]
    20004580:	927cec00 	and	x0, x0, #0xfffffffffffffff0
    20004584:	f9001a76 	str	x22, [x19, #48]
    20004588:	f9002673 	str	x19, [x19, #72]
    2000458c:	3902327f 	strb	wzr, [x19, #140]
    20004590:	97fff898 	bl	200027f0 <pxPortInitialiseStack>
    20004594:	f9000260 	str	x0, [x19]
    20004598:	b4000057 	cbz	x23, 200045a0 <xTaskCreate+0xf0>
    2000459c:	f90002f3 	str	x19, [x23]
    200045a0:	97fff96c 	bl	20002b50 <vPortEnterCritical>
    200045a4:	90000034 	adrp	x20, 20008000 <__bss_start>
    200045a8:	911ca280 	add	x0, x20, #0x728
    200045ac:	f940b401 	ldr	x1, [x0, #360]
    200045b0:	f0000016 	adrp	x22, 20007000 <pt_config>
    200045b4:	f940aac2 	ldr	x2, [x22, #336]
    200045b8:	91000421 	add	x1, x1, #0x1
    200045bc:	f900b401 	str	x1, [x0, #360]
    200045c0:	f9400041 	ldr	x1, [x2]
    200045c4:	b40006a1 	cbz	x1, 20004698 <xTaskCreate+0x1e8>
    200045c8:	f940f400 	ldr	x0, [x0, #488]
    200045cc:	f9402e61 	ldr	x1, [x19, #88]
    200045d0:	b50000c0 	cbnz	x0, 200045e8 <xTaskCreate+0x138>
    200045d4:	f9400040 	ldr	x0, [x2]
    200045d8:	f9402c00 	ldr	x0, [x0, #88]
    200045dc:	eb01001f 	cmp	x0, x1
    200045e0:	54000048 	b.hi	200045e8 <xTaskCreate+0x138>  // b.pmore
    200045e4:	f9000053 	str	x19, [x2]
    200045e8:	911ca294 	add	x20, x20, #0x728
    200045ec:	d2800035 	mov	x21, #0x1                   	// #1
    200045f0:	8b010820 	add	x0, x1, x1, lsl #2
    200045f4:	f940a684 	ldr	x4, [x20, #328]
    200045f8:	9ac122a2 	lsl	x2, x21, x1
    200045fc:	aa1b03e1 	mov	x1, x27
    20004600:	8b000e80 	add	x0, x20, x0, lsl #3
    20004604:	f940fa83 	ldr	x3, [x20, #496]
    20004608:	aa040042 	orr	x2, x2, x4
    2000460c:	8b150063 	add	x3, x3, x21
    20004610:	f900a682 	str	x2, [x20, #328]
    20004614:	f900fa83 	str	x3, [x20, #496]
    20004618:	97fffb52 	bl	20003360 <vListInsertEnd>
    2000461c:	97fff8e9 	bl	200029c0 <vPortExitCritical>
    20004620:	f940f681 	ldr	x1, [x20, #488]
    20004624:	aa1503e0 	mov	x0, x21
    20004628:	b4000141 	cbz	x1, 20004650 <xTaskCreate+0x1a0>
    2000462c:	f940aad6 	ldr	x22, [x22, #336]
    20004630:	f9402e61 	ldr	x1, [x19, #88]
    20004634:	f94002c2 	ldr	x2, [x22]
    20004638:	f9402c42 	ldr	x2, [x2, #88]
    2000463c:	eb01005f 	cmp	x2, x1
    20004640:	54000082 	b.cs	20004650 <xTaskCreate+0x1a0>  // b.hs, b.nlast
    20004644:	d4000001 	svc	#0x0
    20004648:	f9402bfb 	ldr	x27, [sp, #80]
    2000464c:	14000002 	b	20004654 <xTaskCreate+0x1a4>
    20004650:	f9402bfb 	ldr	x27, [sp, #80]
    20004654:	a94153f3 	ldp	x19, x20, [sp, #16]
    20004658:	a9425bf5 	ldp	x21, x22, [sp, #32]
    2000465c:	a94363f7 	ldp	x23, x24, [sp, #48]
    20004660:	a9446bf9 	ldp	x25, x26, [sp, #64]
    20004664:	a8c67bfd 	ldp	x29, x30, [sp], #96
    20004668:	d65f03c0 	ret
    2000466c:	92800000 	mov	x0, #0xffffffffffffffff    	// #-1
    20004670:	a94153f3 	ldp	x19, x20, [sp, #16]
    20004674:	a9425bf5 	ldp	x21, x22, [sp, #32]
    20004678:	a94363f7 	ldp	x23, x24, [sp, #48]
    2000467c:	a9446bf9 	ldp	x25, x26, [sp, #64]
    20004680:	a8c67bfd 	ldp	x29, x30, [sp], #96
    20004684:	d65f03c0 	ret
    20004688:	aa1503e0 	mov	x0, x21
    2000468c:	94000719 	bl	200062f0 <vPortFree>
    20004690:	92800000 	mov	x0, #0xffffffffffffffff    	// #-1
    20004694:	17fffff0 	b	20004654 <xTaskCreate+0x1a4>
    20004698:	f9000053 	str	x19, [x2]
    2000469c:	f940b401 	ldr	x1, [x0, #360]
    200046a0:	f100043f 	cmp	x1, #0x1
    200046a4:	540000a0 	b.eq	200046b8 <xTaskCreate+0x208>  // b.none
    200046a8:	f9402e61 	ldr	x1, [x19, #88]
    200046ac:	17ffffcf 	b	200045e8 <xTaskCreate+0x138>
    200046b0:	3901a01f 	strb	wzr, [x0, #104]
    200046b4:	17ffffa1 	b	20004538 <xTaskCreate+0x88>
    200046b8:	aa0003f5 	mov	x21, x0
    200046bc:	91050017 	add	x23, x0, #0x140
    200046c0:	aa1503e0 	mov	x0, x21
    200046c4:	9100a2b5 	add	x21, x21, #0x28
    200046c8:	97fffb1a 	bl	20003330 <vListInitialise>
    200046cc:	eb1502ff 	cmp	x23, x21
    200046d0:	54ffff81 	b.ne	200046c0 <xTaskCreate+0x210>  // b.any
    200046d4:	911ca295 	add	x21, x20, #0x728
    200046d8:	9105c2b8 	add	x24, x21, #0x170
    200046dc:	910662b7 	add	x23, x21, #0x198
    200046e0:	aa1803e0 	mov	x0, x24
    200046e4:	97fffb13 	bl	20003330 <vListInitialise>
    200046e8:	aa1703e0 	mov	x0, x23
    200046ec:	97fffb11 	bl	20003330 <vListInitialise>
    200046f0:	910702a0 	add	x0, x21, #0x1c0
    200046f4:	97fffb0f 	bl	20003330 <vListInitialise>
    200046f8:	f900aeb8 	str	x24, [x21, #344]
    200046fc:	f900aab7 	str	x23, [x21, #336]
    20004700:	f9402e61 	ldr	x1, [x19, #88]
    20004704:	17ffffb9 	b	200045e8 <xTaskCreate+0x138>
    20004708:	d503201f 	nop
    2000470c:	d503201f 	nop

0000000020004710 <vTaskStartScheduler>:
    20004710:	a9be7bfd 	stp	x29, x30, [sp, #-32]!
    20004714:	910003fd 	mov	x29, sp
    20004718:	d0000001 	adrp	x1, 20006000 <uxTimerGetReloadMode>
    2000471c:	90000000 	adrp	x0, 20004000 <xQueuePeek+0x80>
    20004720:	91130021 	add	x1, x1, #0x4c0
    20004724:	910ec000 	add	x0, x0, #0x3b0
    20004728:	f9000bf3 	str	x19, [sp, #16]
    2000472c:	90000033 	adrp	x19, 20008000 <__bss_start>
    20004730:	911ca273 	add	x19, x19, #0x728
    20004734:	d2800004 	mov	x4, #0x0                   	// #0
    20004738:	d2800003 	mov	x3, #0x0                   	// #0
    2000473c:	52801902 	mov	w2, #0xc8                  	// #200
    20004740:	9107e265 	add	x5, x19, #0x1f8
    20004744:	97ffff5b 	bl	200044b0 <xTaskCreate>
    20004748:	f100041f 	cmp	x0, #0x1
    2000474c:	54000080 	b.eq	2000475c <vTaskStartScheduler+0x4c>  // b.none
    20004750:	f9400bf3 	ldr	x19, [sp, #16]
    20004754:	a8c27bfd 	ldp	x29, x30, [sp], #32
    20004758:	d65f03c0 	ret
    2000475c:	940004e1 	bl	20005ae0 <xTimerCreateTimerTask>
    20004760:	f100041f 	cmp	x0, #0x1
    20004764:	54ffff61 	b.ne	20004750 <vTaskStartScheduler+0x40>  // b.any
    20004768:	d50342df 	msr	daifset, #0x2
    2000476c:	d5033f9f 	dsb	sy
    20004770:	d5033fdf 	isb
    20004774:	92800001 	mov	x1, #0xffffffffffffffff    	// #-1
    20004778:	f900b261 	str	x1, [x19, #352]
    2000477c:	f900f660 	str	x0, [x19, #488]
    20004780:	f900a27f 	str	xzr, [x19, #320]
    20004784:	f9400bf3 	ldr	x19, [sp, #16]
    20004788:	a8c27bfd 	ldp	x29, x30, [sp], #32
    2000478c:	17fff875 	b	20002960 <xPortStartScheduler>

0000000020004790 <vTaskEndScheduler>:
    20004790:	d50342df 	msr	daifset, #0x2
    20004794:	d5033f9f 	dsb	sy
    20004798:	d5033fdf 	isb
    2000479c:	90000020 	adrp	x0, 20008000 <__bss_start>
    200047a0:	911ca000 	add	x0, x0, #0x728
    200047a4:	f900f41f 	str	xzr, [x0, #488]
    200047a8:	17fff882 	b	200029b0 <vPortEndScheduler>
    200047ac:	d503201f 	nop

00000000200047b0 <vTaskSuspendAll>:
    200047b0:	90000020 	adrp	x0, 20008000 <__bss_start>
    200047b4:	911ca000 	add	x0, x0, #0x728
    200047b8:	f9410001 	ldr	x1, [x0, #512]
    200047bc:	91000421 	add	x1, x1, #0x1
    200047c0:	f9010001 	str	x1, [x0, #512]
    200047c4:	d65f03c0 	ret
    200047c8:	d503201f 	nop
    200047cc:	d503201f 	nop

00000000200047d0 <xTaskGetTickCount>:
    200047d0:	90000020 	adrp	x0, 20008000 <__bss_start>
    200047d4:	911ca000 	add	x0, x0, #0x728
    200047d8:	f940a000 	ldr	x0, [x0, #320]
    200047dc:	d65f03c0 	ret

00000000200047e0 <xTaskGetTickCountFromISR>:
    200047e0:	90000020 	adrp	x0, 20008000 <__bss_start>
    200047e4:	911ca000 	add	x0, x0, #0x728
    200047e8:	f940a000 	ldr	x0, [x0, #320]
    200047ec:	d65f03c0 	ret

00000000200047f0 <uxTaskGetNumberOfTasks>:
    200047f0:	90000020 	adrp	x0, 20008000 <__bss_start>
    200047f4:	911ca000 	add	x0, x0, #0x728
    200047f8:	f940b400 	ldr	x0, [x0, #360]
    200047fc:	d65f03c0 	ret

0000000020004800 <pcTaskGetName>:
    20004800:	b4000060 	cbz	x0, 2000480c <pcTaskGetName+0xc>
    20004804:	9101a000 	add	x0, x0, #0x68
    20004808:	d65f03c0 	ret
    2000480c:	f0000000 	adrp	x0, 20007000 <pt_config>
    20004810:	f940a800 	ldr	x0, [x0, #336]
    20004814:	f9400000 	ldr	x0, [x0]
    20004818:	9101a000 	add	x0, x0, #0x68
    2000481c:	d65f03c0 	ret

0000000020004820 <xTaskIncrementTick>:
    20004820:	a9ba7bfd 	stp	x29, x30, [sp, #-96]!
    20004824:	910003fd 	mov	x29, sp
    20004828:	a90363f7 	stp	x23, x24, [sp, #48]
    2000482c:	90000038 	adrp	x24, 20008000 <__bss_start>
    20004830:	911ca300 	add	x0, x24, #0x728
    20004834:	a9025bf5 	stp	x21, x22, [sp, #32]
    20004838:	f9410001 	ldr	x1, [x0, #512]
    2000483c:	b5000b21 	cbnz	x1, 200049a0 <xTaskIncrementTick+0x180>
    20004840:	f940a016 	ldr	x22, [x0, #320]
    20004844:	a90153f3 	stp	x19, x20, [sp, #16]
    20004848:	a9046bf9 	stp	x25, x26, [sp, #64]
    2000484c:	910006d6 	add	x22, x22, #0x1
    20004850:	f900a016 	str	x22, [x0, #320]
    20004854:	b50001b6 	cbnz	x22, 20004888 <xTaskIncrementTick+0x68>
    20004858:	f940ac01 	ldr	x1, [x0, #344]
    2000485c:	f940a802 	ldr	x2, [x0, #336]
    20004860:	f900ac02 	str	x2, [x0, #344]
    20004864:	f900a801 	str	x1, [x0, #336]
    20004868:	f9410401 	ldr	x1, [x0, #520]
    2000486c:	91000421 	add	x1, x1, #0x1
    20004870:	f9010401 	str	x1, [x0, #520]
    20004874:	f940ac01 	ldr	x1, [x0, #344]
    20004878:	f9400021 	ldr	x1, [x1]
    2000487c:	b5000aa1 	cbnz	x1, 200049d0 <xTaskIncrementTick+0x1b0>
    20004880:	92800001 	mov	x1, #0xffffffffffffffff    	// #-1
    20004884:	f900b001 	str	x1, [x0, #352]
    20004888:	911ca314 	add	x20, x24, #0x728
    2000488c:	f940b280 	ldr	x0, [x20, #352]
    20004890:	eb0002df 	cmp	x22, x0
    20004894:	54000563 	b.cc	20004940 <xTaskIncrementTick+0x120>  // b.lo, b.ul, b.last
    20004898:	f940ae80 	ldr	x0, [x20, #344]
    2000489c:	f9400000 	ldr	x0, [x0]
    200048a0:	b4000b60 	cbz	x0, 20004a0c <xTaskIncrementTick+0x1ec>
    200048a4:	f0000019 	adrp	x25, 20007000 <pt_config>
    200048a8:	d2800015 	mov	x21, #0x0                   	// #0
    200048ac:	f9002bfb 	str	x27, [sp, #80]
    200048b0:	f940ab3a 	ldr	x26, [x25, #336]
    200048b4:	d2800037 	mov	x23, #0x1                   	// #1
    200048b8:	14000017 	b	20004914 <xTaskIncrementTick+0xf4>
    200048bc:	97fffacd 	bl	200033f0 <uxListRemove>
    200048c0:	f9402a61 	ldr	x1, [x19, #80]
    200048c4:	9100c260 	add	x0, x19, #0x30
    200048c8:	b4000041 	cbz	x1, 200048d0 <xTaskIncrementTick+0xb0>
    200048cc:	97fffac9 	bl	200033f0 <uxListRemove>
    200048d0:	f9402e60 	ldr	x0, [x19, #88]
    200048d4:	aa1b03e1 	mov	x1, x27
    200048d8:	f940a683 	ldr	x3, [x20, #328]
    200048dc:	9ac022e2 	lsl	x2, x23, x0
    200048e0:	8b000800 	add	x0, x0, x0, lsl #2
    200048e4:	aa030042 	orr	x2, x2, x3
    200048e8:	8b000e80 	add	x0, x20, x0, lsl #3
    200048ec:	f900a682 	str	x2, [x20, #328]
    200048f0:	97fffa9c 	bl	20003360 <vListInsertEnd>
    200048f4:	f9400341 	ldr	x1, [x26]
    200048f8:	f940ae80 	ldr	x0, [x20, #344]
    200048fc:	f9402e62 	ldr	x2, [x19, #88]
    20004900:	f9402c21 	ldr	x1, [x1, #88]
    20004904:	f9400000 	ldr	x0, [x0]
    20004908:	eb01005f 	cmp	x2, x1
    2000490c:	9a9732b5 	csel	x21, x21, x23, cc  // cc = lo, ul, last
    20004910:	b4000740 	cbz	x0, 200049f8 <xTaskIncrementTick+0x1d8>
    20004914:	f940ae80 	ldr	x0, [x20, #344]
    20004918:	f9400c00 	ldr	x0, [x0, #24]
    2000491c:	f9400c13 	ldr	x19, [x0, #24]
    20004920:	f9400661 	ldr	x1, [x19, #8]
    20004924:	9100227b 	add	x27, x19, #0x8
    20004928:	aa1b03e0 	mov	x0, x27
    2000492c:	eb0102df 	cmp	x22, x1
    20004930:	54fffc62 	b.cs	200048bc <xTaskIncrementTick+0x9c>  // b.hs, b.nlast
    20004934:	f900b281 	str	x1, [x20, #352]
    20004938:	f9402bfb 	ldr	x27, [sp, #80]
    2000493c:	14000003 	b	20004948 <xTaskIncrementTick+0x128>
    20004940:	d2800015 	mov	x21, #0x0                   	// #0
    20004944:	f0000019 	adrp	x25, 20007000 <pt_config>
    20004948:	f940ab22 	ldr	x2, [x25, #336]
    2000494c:	911ca301 	add	x1, x24, #0x728
    20004950:	f9400040 	ldr	x0, [x2]
    20004954:	f9402c00 	ldr	x0, [x0, #88]
    20004958:	8b000800 	add	x0, x0, x0, lsl #2
    2000495c:	d37df000 	lsl	x0, x0, #3
    20004960:	f8606822 	ldr	x2, [x1, x0]
    20004964:	f9410820 	ldr	x0, [x1, #528]
    20004968:	f100085f 	cmp	x2, #0x2
    2000496c:	9a9f36b5 	csinc	x21, x21, xzr, cc  // cc = lo, ul, last
    20004970:	b40002c0 	cbz	x0, 200049c8 <xTaskIncrementTick+0x1a8>
    20004974:	911ca318 	add	x24, x24, #0x728
    20004978:	a94153f3 	ldp	x19, x20, [sp, #16]
    2000497c:	a9446bf9 	ldp	x25, x26, [sp, #64]
    20004980:	f9410f00 	ldr	x0, [x24, #536]
    20004984:	a94363f7 	ldp	x23, x24, [sp, #48]
    20004988:	f100001f 	cmp	x0, #0x0
    2000498c:	9a9f06b5 	csinc	x21, x21, xzr, eq  // eq = none
    20004990:	aa1503e0 	mov	x0, x21
    20004994:	a9425bf5 	ldp	x21, x22, [sp, #32]
    20004998:	a8c67bfd 	ldp	x29, x30, [sp], #96
    2000499c:	d65f03c0 	ret
    200049a0:	f9410801 	ldr	x1, [x0, #528]
    200049a4:	d2800015 	mov	x21, #0x0                   	// #0
    200049a8:	91000421 	add	x1, x1, #0x1
    200049ac:	f9010801 	str	x1, [x0, #528]
    200049b0:	97fff468 	bl	20001b50 <vApplicationTickHook>
    200049b4:	aa1503e0 	mov	x0, x21
    200049b8:	a9425bf5 	ldp	x21, x22, [sp, #32]
    200049bc:	a94363f7 	ldp	x23, x24, [sp, #48]
    200049c0:	a8c67bfd 	ldp	x29, x30, [sp], #96
    200049c4:	d65f03c0 	ret
    200049c8:	97fff462 	bl	20001b50 <vApplicationTickHook>
    200049cc:	17ffffea 	b	20004974 <xTaskIncrementTick+0x154>
    200049d0:	f940ac01 	ldr	x1, [x0, #344]
    200049d4:	911ca314 	add	x20, x24, #0x728
    200049d8:	f9400c21 	ldr	x1, [x1, #24]
    200049dc:	f9400c21 	ldr	x1, [x1, #24]
    200049e0:	f9400421 	ldr	x1, [x1, #8]
    200049e4:	f900b001 	str	x1, [x0, #352]
    200049e8:	f940b280 	ldr	x0, [x20, #352]
    200049ec:	eb0002df 	cmp	x22, x0
    200049f0:	54fffa83 	b.cc	20004940 <xTaskIncrementTick+0x120>  // b.lo, b.ul, b.last
    200049f4:	17ffffa9 	b	20004898 <xTaskIncrementTick+0x78>
    200049f8:	f9402bfb 	ldr	x27, [sp, #80]
    200049fc:	911ca300 	add	x0, x24, #0x728
    20004a00:	92800001 	mov	x1, #0xffffffffffffffff    	// #-1
    20004a04:	f900b001 	str	x1, [x0, #352]
    20004a08:	17ffffd0 	b	20004948 <xTaskIncrementTick+0x128>
    20004a0c:	d2800015 	mov	x21, #0x0                   	// #0
    20004a10:	f0000019 	adrp	x25, 20007000 <pt_config>
    20004a14:	17fffffa 	b	200049fc <xTaskIncrementTick+0x1dc>
    20004a18:	d503201f 	nop
    20004a1c:	d503201f 	nop

0000000020004a20 <xTaskResumeAll>:
    20004a20:	a9bc7bfd 	stp	x29, x30, [sp, #-64]!
    20004a24:	910003fd 	mov	x29, sp
    20004a28:	a90153f3 	stp	x19, x20, [sp, #16]
    20004a2c:	a90363f7 	stp	x23, x24, [sp, #48]
    20004a30:	90000037 	adrp	x23, 20008000 <__bss_start>
    20004a34:	911ca2f3 	add	x19, x23, #0x728
    20004a38:	97fff846 	bl	20002b50 <vPortEnterCritical>
    20004a3c:	f9410260 	ldr	x0, [x19, #512]
    20004a40:	d1000400 	sub	x0, x0, #0x1
    20004a44:	f9010260 	str	x0, [x19, #512]
    20004a48:	f9410260 	ldr	x0, [x19, #512]
    20004a4c:	b50007e0 	cbnz	x0, 20004b48 <xTaskResumeAll+0x128>
    20004a50:	f940b660 	ldr	x0, [x19, #360]
    20004a54:	b40007a0 	cbz	x0, 20004b48 <xTaskResumeAll+0x128>
    20004a58:	a9025bf5 	stp	x21, x22, [sp, #32]
    20004a5c:	f940e260 	ldr	x0, [x19, #448]
    20004a60:	b4000420 	cbz	x0, 20004ae4 <xTaskResumeAll+0xc4>
    20004a64:	f0000000 	adrp	x0, 20007000 <pt_config>
    20004a68:	d2800036 	mov	x22, #0x1                   	// #1
    20004a6c:	f940a818 	ldr	x24, [x0, #336]
    20004a70:	f940ee60 	ldr	x0, [x19, #472]
    20004a74:	f9400c14 	ldr	x20, [x0, #24]
    20004a78:	9100c280 	add	x0, x20, #0x30
    20004a7c:	91002295 	add	x21, x20, #0x8
    20004a80:	97fffa5c 	bl	200033f0 <uxListRemove>
    20004a84:	aa1503e0 	mov	x0, x21
    20004a88:	97fffa5a 	bl	200033f0 <uxListRemove>
    20004a8c:	f9402e80 	ldr	x0, [x20, #88]
    20004a90:	aa1503e1 	mov	x1, x21
    20004a94:	f940a663 	ldr	x3, [x19, #328]
    20004a98:	9ac022c2 	lsl	x2, x22, x0
    20004a9c:	8b000800 	add	x0, x0, x0, lsl #2
    20004aa0:	aa030042 	orr	x2, x2, x3
    20004aa4:	8b000e60 	add	x0, x19, x0, lsl #3
    20004aa8:	f900a662 	str	x2, [x19, #328]
    20004aac:	97fffa2d 	bl	20003360 <vListInsertEnd>
    20004ab0:	f9400300 	ldr	x0, [x24]
    20004ab4:	f9402e81 	ldr	x1, [x20, #88]
    20004ab8:	f9402c00 	ldr	x0, [x0, #88]
    20004abc:	eb00003f 	cmp	x1, x0
    20004ac0:	54000043 	b.cc	20004ac8 <xTaskResumeAll+0xa8>  // b.lo, b.ul, b.last
    20004ac4:	f9010e76 	str	x22, [x19, #536]
    20004ac8:	f940e260 	ldr	x0, [x19, #448]
    20004acc:	b5fffd20 	cbnz	x0, 20004a70 <xTaskResumeAll+0x50>
    20004ad0:	f940ae60 	ldr	x0, [x19, #344]
    20004ad4:	f9400000 	ldr	x0, [x0]
    20004ad8:	b5000460 	cbnz	x0, 20004b64 <xTaskResumeAll+0x144>
    20004adc:	92800000 	mov	x0, #0xffffffffffffffff    	// #-1
    20004ae0:	f900b260 	str	x0, [x19, #352]
    20004ae4:	911ca2f4 	add	x20, x23, #0x728
    20004ae8:	f9410a93 	ldr	x19, [x20, #528]
    20004aec:	b4000153 	cbz	x19, 20004b14 <xTaskResumeAll+0xf4>
    20004af0:	d2800035 	mov	x21, #0x1                   	// #1
    20004af4:	d503201f 	nop
    20004af8:	97ffff4a 	bl	20004820 <xTaskIncrementTick>
    20004afc:	f1000673 	subs	x19, x19, #0x1
    20004b00:	b4000040 	cbz	x0, 20004b08 <xTaskResumeAll+0xe8>
    20004b04:	f9010e95 	str	x21, [x20, #536]
    20004b08:	54ffff81 	b.ne	20004af8 <xTaskResumeAll+0xd8>  // b.any
    20004b0c:	911ca2e0 	add	x0, x23, #0x728
    20004b10:	f901081f 	str	xzr, [x0, #528]
    20004b14:	911ca2f7 	add	x23, x23, #0x728
    20004b18:	f9410ee0 	ldr	x0, [x23, #536]
    20004b1c:	b4000140 	cbz	x0, 20004b44 <xTaskResumeAll+0x124>
    20004b20:	d4000001 	svc	#0x0
    20004b24:	d2800033 	mov	x19, #0x1                   	// #1
    20004b28:	a9425bf5 	ldp	x21, x22, [sp, #32]
    20004b2c:	97fff7a5 	bl	200029c0 <vPortExitCritical>
    20004b30:	aa1303e0 	mov	x0, x19
    20004b34:	a94153f3 	ldp	x19, x20, [sp, #16]
    20004b38:	a94363f7 	ldp	x23, x24, [sp, #48]
    20004b3c:	a8c47bfd 	ldp	x29, x30, [sp], #64
    20004b40:	d65f03c0 	ret
    20004b44:	a9425bf5 	ldp	x21, x22, [sp, #32]
    20004b48:	d2800013 	mov	x19, #0x0                   	// #0
    20004b4c:	97fff79d 	bl	200029c0 <vPortExitCritical>
    20004b50:	aa1303e0 	mov	x0, x19
    20004b54:	a94153f3 	ldp	x19, x20, [sp, #16]
    20004b58:	a94363f7 	ldp	x23, x24, [sp, #48]
    20004b5c:	a8c47bfd 	ldp	x29, x30, [sp], #64
    20004b60:	d65f03c0 	ret
    20004b64:	f940ae60 	ldr	x0, [x19, #344]
    20004b68:	f9400c00 	ldr	x0, [x0, #24]
    20004b6c:	f9400c00 	ldr	x0, [x0, #24]
    20004b70:	f9400400 	ldr	x0, [x0, #8]
    20004b74:	f900b260 	str	x0, [x19, #352]
    20004b78:	17ffffdb 	b	20004ae4 <xTaskResumeAll+0xc4>
    20004b7c:	d503201f 	nop

0000000020004b80 <vTaskDelay>:
    20004b80:	b5000060 	cbnz	x0, 20004b8c <vTaskDelay+0xc>
    20004b84:	d4000001 	svc	#0x0
    20004b88:	d65f03c0 	ret
    20004b8c:	a9be7bfd 	stp	x29, x30, [sp, #-32]!
    20004b90:	910003fd 	mov	x29, sp
    20004b94:	f9000bf3 	str	x19, [sp, #16]
    20004b98:	aa0003f3 	mov	x19, x0
    20004b9c:	97ffff05 	bl	200047b0 <vTaskSuspendAll>
    20004ba0:	aa1303e0 	mov	x0, x19
    20004ba4:	97fffe0f 	bl	200043e0 <prvAddCurrentTaskToDelayedList.isra.0>
    20004ba8:	97ffff9e 	bl	20004a20 <xTaskResumeAll>
    20004bac:	b5000040 	cbnz	x0, 20004bb4 <vTaskDelay+0x34>
    20004bb0:	d4000001 	svc	#0x0
    20004bb4:	f9400bf3 	ldr	x19, [sp, #16]
    20004bb8:	a8c27bfd 	ldp	x29, x30, [sp], #32
    20004bbc:	d65f03c0 	ret

0000000020004bc0 <xTaskCatchUpTicks>:
    20004bc0:	a9be7bfd 	stp	x29, x30, [sp, #-32]!
    20004bc4:	910003fd 	mov	x29, sp
    20004bc8:	f9000bf3 	str	x19, [sp, #16]
    20004bcc:	aa0003f3 	mov	x19, x0
    20004bd0:	97fffef8 	bl	200047b0 <vTaskSuspendAll>
    20004bd4:	90000021 	adrp	x1, 20008000 <__bss_start>
    20004bd8:	911ca021 	add	x1, x1, #0x728
    20004bdc:	f9410822 	ldr	x2, [x1, #528]
    20004be0:	8b130040 	add	x0, x2, x19
    20004be4:	f9400bf3 	ldr	x19, [sp, #16]
    20004be8:	f9010820 	str	x0, [x1, #528]
    20004bec:	a8c27bfd 	ldp	x29, x30, [sp], #32
    20004bf0:	17ffff8c 	b	20004a20 <xTaskResumeAll>
    20004bf4:	d503201f 	nop
    20004bf8:	d503201f 	nop
    20004bfc:	d503201f 	nop

0000000020004c00 <vTaskSwitchContext>:
    20004c00:	90000020 	adrp	x0, 20008000 <__bss_start>
    20004c04:	911ca000 	add	x0, x0, #0x728
    20004c08:	f9410001 	ldr	x1, [x0, #512]
    20004c0c:	b4000081 	cbz	x1, 20004c1c <vTaskSwitchContext+0x1c>
    20004c10:	d2800021 	mov	x1, #0x1                   	// #1
    20004c14:	f9010c01 	str	x1, [x0, #536]
    20004c18:	d65f03c0 	ret
    20004c1c:	f9010c1f 	str	xzr, [x0, #536]
    20004c20:	528003e1 	mov	w1, #0x1f                  	// #31
    20004c24:	52800503 	mov	w3, #0x28                  	// #40
    20004c28:	f940a402 	ldr	x2, [x0, #328]
    20004c2c:	5ac01042 	clz	w2, w2
    20004c30:	4b020021 	sub	w1, w1, w2
    20004c34:	937e7c22 	sbfiz	x2, x1, #2, #32
    20004c38:	8b21c042 	add	x2, x2, w1, sxtw
    20004c3c:	8b020c02 	add	x2, x0, x2, lsl #3
    20004c40:	9b230020 	smaddl	x0, w1, w3, x0
    20004c44:	f9400441 	ldr	x1, [x2, #8]
    20004c48:	91004000 	add	x0, x0, #0x10
    20004c4c:	f9400421 	ldr	x1, [x1, #8]
    20004c50:	eb00003f 	cmp	x1, x0
    20004c54:	f9000441 	str	x1, [x2, #8]
    20004c58:	540000c0 	b.eq	20004c70 <vTaskSwitchContext+0x70>  // b.none
    20004c5c:	f0000000 	adrp	x0, 20007000 <pt_config>
    20004c60:	f9400c21 	ldr	x1, [x1, #24]
    20004c64:	f940a800 	ldr	x0, [x0, #336]
    20004c68:	f9000001 	str	x1, [x0]
    20004c6c:	d65f03c0 	ret
    20004c70:	f9400421 	ldr	x1, [x1, #8]
    20004c74:	f0000000 	adrp	x0, 20007000 <pt_config>
    20004c78:	f940a800 	ldr	x0, [x0, #336]
    20004c7c:	f9000441 	str	x1, [x2, #8]
    20004c80:	f9400c21 	ldr	x1, [x1, #24]
    20004c84:	f9000001 	str	x1, [x0]
    20004c88:	17fffff9 	b	20004c6c <vTaskSwitchContext+0x6c>
    20004c8c:	d503201f 	nop

0000000020004c90 <vTaskPlaceOnEventList>:
    20004c90:	f0000002 	adrp	x2, 20007000 <pt_config>
    20004c94:	a9be7bfd 	stp	x29, x30, [sp, #-32]!
    20004c98:	910003fd 	mov	x29, sp
    20004c9c:	f940a842 	ldr	x2, [x2, #336]
    20004ca0:	f9000bf3 	str	x19, [sp, #16]
    20004ca4:	aa0103f3 	mov	x19, x1
    20004ca8:	f9400041 	ldr	x1, [x2]
    20004cac:	9100c021 	add	x1, x1, #0x30
    20004cb0:	97fff9b8 	bl	20003390 <vListInsert>
    20004cb4:	aa1303e0 	mov	x0, x19
    20004cb8:	f9400bf3 	ldr	x19, [sp, #16]
    20004cbc:	a8c27bfd 	ldp	x29, x30, [sp], #32
    20004cc0:	17fffdc8 	b	200043e0 <prvAddCurrentTaskToDelayedList.isra.0>
    20004cc4:	d503201f 	nop
    20004cc8:	d503201f 	nop
    20004ccc:	d503201f 	nop

0000000020004cd0 <vTaskPlaceOnUnorderedEventList>:
    20004cd0:	f0000003 	adrp	x3, 20007000 <pt_config>
    20004cd4:	a9be7bfd 	stp	x29, x30, [sp, #-32]!
    20004cd8:	910003fd 	mov	x29, sp
    20004cdc:	b2610024 	orr	x4, x1, #0x80000000
    20004ce0:	f940a863 	ldr	x3, [x3, #336]
    20004ce4:	f9000bf3 	str	x19, [sp, #16]
    20004ce8:	aa0203f3 	mov	x19, x2
    20004cec:	f9400062 	ldr	x2, [x3]
    20004cf0:	f9400061 	ldr	x1, [x3]
    20004cf4:	f9001844 	str	x4, [x2, #48]
    20004cf8:	9100c021 	add	x1, x1, #0x30
    20004cfc:	97fff999 	bl	20003360 <vListInsertEnd>
    20004d00:	aa1303e0 	mov	x0, x19
    20004d04:	f9400bf3 	ldr	x19, [sp, #16]
    20004d08:	a8c27bfd 	ldp	x29, x30, [sp], #32
    20004d0c:	17fffdb5 	b	200043e0 <prvAddCurrentTaskToDelayedList.isra.0>

0000000020004d10 <vTaskPlaceOnEventListRestricted>:
    20004d10:	f0000003 	adrp	x3, 20007000 <pt_config>
    20004d14:	a9be7bfd 	stp	x29, x30, [sp, #-32]!
    20004d18:	910003fd 	mov	x29, sp
    20004d1c:	f940a863 	ldr	x3, [x3, #336]
    20004d20:	a90153f3 	stp	x19, x20, [sp, #16]
    20004d24:	aa0103f3 	mov	x19, x1
    20004d28:	aa0203f4 	mov	x20, x2
    20004d2c:	f9400061 	ldr	x1, [x3]
    20004d30:	9100c021 	add	x1, x1, #0x30
    20004d34:	97fff98b 	bl	20003360 <vListInsertEnd>
    20004d38:	f100029f 	cmp	x20, #0x0
    20004d3c:	da9f0260 	csinv	x0, x19, xzr, eq  // eq = none
    20004d40:	a94153f3 	ldp	x19, x20, [sp, #16]
    20004d44:	a8c27bfd 	ldp	x29, x30, [sp], #32
    20004d48:	17fffda6 	b	200043e0 <prvAddCurrentTaskToDelayedList.isra.0>
    20004d4c:	d503201f 	nop

0000000020004d50 <xTaskRemoveFromEventList>:
    20004d50:	a9bd7bfd 	stp	x29, x30, [sp, #-48]!
    20004d54:	910003fd 	mov	x29, sp
    20004d58:	f9400c00 	ldr	x0, [x0, #24]
    20004d5c:	a90153f3 	stp	x19, x20, [sp, #16]
    20004d60:	a9025bf5 	stp	x21, x22, [sp, #32]
    20004d64:	90000035 	adrp	x21, 20008000 <__bss_start>
    20004d68:	911ca2b4 	add	x20, x21, #0x728
    20004d6c:	f9400c13 	ldr	x19, [x0, #24]
    20004d70:	9100c276 	add	x22, x19, #0x30
    20004d74:	aa1603e0 	mov	x0, x22
    20004d78:	97fff99e 	bl	200033f0 <uxListRemove>
    20004d7c:	f9410280 	ldr	x0, [x20, #512]
    20004d80:	b50003c0 	cbnz	x0, 20004df8 <xTaskRemoveFromEventList+0xa8>
    20004d84:	91002276 	add	x22, x19, #0x8
    20004d88:	aa1603e0 	mov	x0, x22
    20004d8c:	97fff999 	bl	200033f0 <uxListRemove>
    20004d90:	f9402e60 	ldr	x0, [x19, #88]
    20004d94:	d2800022 	mov	x2, #0x1                   	// #1
    20004d98:	aa1603e1 	mov	x1, x22
    20004d9c:	f940a683 	ldr	x3, [x20, #328]
    20004da0:	9ac02042 	lsl	x2, x2, x0
    20004da4:	8b000800 	add	x0, x0, x0, lsl #2
    20004da8:	aa030042 	orr	x2, x2, x3
    20004dac:	8b000e80 	add	x0, x20, x0, lsl #3
    20004db0:	f900a682 	str	x2, [x20, #328]
    20004db4:	97fff96b 	bl	20003360 <vListInsertEnd>
    20004db8:	f0000001 	adrp	x1, 20007000 <pt_config>
    20004dbc:	f9402e62 	ldr	x2, [x19, #88]
    20004dc0:	d2800000 	mov	x0, #0x0                   	// #0
    20004dc4:	f940a821 	ldr	x1, [x1, #336]
    20004dc8:	f9400021 	ldr	x1, [x1]
    20004dcc:	f9402c21 	ldr	x1, [x1, #88]
    20004dd0:	eb01005f 	cmp	x2, x1
    20004dd4:	540000a9 	b.ls	20004de8 <xTaskRemoveFromEventList+0x98>  // b.plast
    20004dd8:	d2800021 	mov	x1, #0x1                   	// #1
    20004ddc:	911ca2b5 	add	x21, x21, #0x728
    20004de0:	aa0103e0 	mov	x0, x1
    20004de4:	f9010ea1 	str	x1, [x21, #536]
    20004de8:	a94153f3 	ldp	x19, x20, [sp, #16]
    20004dec:	a9425bf5 	ldp	x21, x22, [sp, #32]
    20004df0:	a8c37bfd 	ldp	x29, x30, [sp], #48
    20004df4:	d65f03c0 	ret
    20004df8:	aa1603e1 	mov	x1, x22
    20004dfc:	91070280 	add	x0, x20, #0x1c0
    20004e00:	97fff958 	bl	20003360 <vListInsertEnd>
    20004e04:	17ffffed 	b	20004db8 <xTaskRemoveFromEventList+0x68>
    20004e08:	d503201f 	nop
    20004e0c:	d503201f 	nop

0000000020004e10 <vTaskRemoveFromUnorderedEventList>:
    20004e10:	a9bd7bfd 	stp	x29, x30, [sp, #-48]!
    20004e14:	910003fd 	mov	x29, sp
    20004e18:	b2610021 	orr	x1, x1, #0x80000000
    20004e1c:	a90153f3 	stp	x19, x20, [sp, #16]
    20004e20:	90000033 	adrp	x19, 20008000 <__bss_start>
    20004e24:	911ca273 	add	x19, x19, #0x728
    20004e28:	f9400c14 	ldr	x20, [x0, #24]
    20004e2c:	a9025bf5 	stp	x21, x22, [sp, #32]
    20004e30:	d2800035 	mov	x21, #0x1                   	// #1
    20004e34:	f9000001 	str	x1, [x0]
    20004e38:	97fff96e 	bl	200033f0 <uxListRemove>
    20004e3c:	91002296 	add	x22, x20, #0x8
    20004e40:	aa1603e0 	mov	x0, x22
    20004e44:	97fff96b 	bl	200033f0 <uxListRemove>
    20004e48:	f9402e80 	ldr	x0, [x20, #88]
    20004e4c:	aa1603e1 	mov	x1, x22
    20004e50:	f940a663 	ldr	x3, [x19, #328]
    20004e54:	9ac022a2 	lsl	x2, x21, x0
    20004e58:	8b000800 	add	x0, x0, x0, lsl #2
    20004e5c:	aa030042 	orr	x2, x2, x3
    20004e60:	8b000e60 	add	x0, x19, x0, lsl #3
    20004e64:	f900a662 	str	x2, [x19, #328]
    20004e68:	97fff93e 	bl	20003360 <vListInsertEnd>
    20004e6c:	f0000000 	adrp	x0, 20007000 <pt_config>
    20004e70:	f9402e81 	ldr	x1, [x20, #88]
    20004e74:	f940a800 	ldr	x0, [x0, #336]
    20004e78:	f9400000 	ldr	x0, [x0]
    20004e7c:	f9402c00 	ldr	x0, [x0, #88]
    20004e80:	eb00003f 	cmp	x1, x0
    20004e84:	54000049 	b.ls	20004e8c <vTaskRemoveFromUnorderedEventList+0x7c>  // b.plast
    20004e88:	f9010e75 	str	x21, [x19, #536]
    20004e8c:	a94153f3 	ldp	x19, x20, [sp, #16]
    20004e90:	a9425bf5 	ldp	x21, x22, [sp, #32]
    20004e94:	a8c37bfd 	ldp	x29, x30, [sp], #48
    20004e98:	d65f03c0 	ret
    20004e9c:	d503201f 	nop

0000000020004ea0 <vTaskSetTimeOutState>:
    20004ea0:	a9be7bfd 	stp	x29, x30, [sp, #-32]!
    20004ea4:	910003fd 	mov	x29, sp
    20004ea8:	f9000bf3 	str	x19, [sp, #16]
    20004eac:	aa0003f3 	mov	x19, x0
    20004eb0:	97fff728 	bl	20002b50 <vPortEnterCritical>
    20004eb4:	90000020 	adrp	x0, 20008000 <__bss_start>
    20004eb8:	911ca000 	add	x0, x0, #0x728
    20004ebc:	f9410401 	ldr	x1, [x0, #520]
    20004ec0:	f940a000 	ldr	x0, [x0, #320]
    20004ec4:	a9000261 	stp	x1, x0, [x19]
    20004ec8:	f9400bf3 	ldr	x19, [sp, #16]
    20004ecc:	a8c27bfd 	ldp	x29, x30, [sp], #32
    20004ed0:	17fff6bc 	b	200029c0 <vPortExitCritical>
    20004ed4:	d503201f 	nop
    20004ed8:	d503201f 	nop
    20004edc:	d503201f 	nop

0000000020004ee0 <vTaskInternalSetTimeOutState>:
    20004ee0:	90000021 	adrp	x1, 20008000 <__bss_start>
    20004ee4:	911ca021 	add	x1, x1, #0x728
    20004ee8:	f9410422 	ldr	x2, [x1, #520]
    20004eec:	f940a021 	ldr	x1, [x1, #320]
    20004ef0:	a9000402 	stp	x2, x1, [x0]
    20004ef4:	d65f03c0 	ret
    20004ef8:	d503201f 	nop
    20004efc:	d503201f 	nop

0000000020004f00 <xTaskCheckForTimeOut>:
    20004f00:	a9be7bfd 	stp	x29, x30, [sp, #-32]!
    20004f04:	910003fd 	mov	x29, sp
    20004f08:	a90153f3 	stp	x19, x20, [sp, #16]
    20004f0c:	aa0003f3 	mov	x19, x0
    20004f10:	aa0103f4 	mov	x20, x1
    20004f14:	97fff70f 	bl	20002b50 <vPortEnterCritical>
    20004f18:	90000020 	adrp	x0, 20008000 <__bss_start>
    20004f1c:	911ca000 	add	x0, x0, #0x728
    20004f20:	a9400663 	ldp	x3, x1, [x19]
    20004f24:	f940a002 	ldr	x2, [x0, #320]
    20004f28:	f9410400 	ldr	x0, [x0, #520]
    20004f2c:	eb00007f 	cmp	x3, x0
    20004f30:	fa421022 	ccmp	x1, x2, #0x2, ne  // ne = any
    20004f34:	540002e9 	b.ls	20004f90 <xTaskCheckForTimeOut+0x90>  // b.plast
    20004f38:	f9400280 	ldr	x0, [x20]
    20004f3c:	cb010043 	sub	x3, x2, x1
    20004f40:	eb03001f 	cmp	x0, x3
    20004f44:	54000108 	b.hi	20004f64 <xTaskCheckForTimeOut+0x64>  // b.pmore
    20004f48:	f900029f 	str	xzr, [x20]
    20004f4c:	d2800033 	mov	x19, #0x1                   	// #1
    20004f50:	97fff69c 	bl	200029c0 <vPortExitCritical>
    20004f54:	aa1303e0 	mov	x0, x19
    20004f58:	a94153f3 	ldp	x19, x20, [sp, #16]
    20004f5c:	a8c27bfd 	ldp	x29, x30, [sp], #32
    20004f60:	d65f03c0 	ret
    20004f64:	cb020002 	sub	x2, x0, x2
    20004f68:	aa1303e0 	mov	x0, x19
    20004f6c:	8b010042 	add	x2, x2, x1
    20004f70:	d2800013 	mov	x19, #0x0                   	// #0
    20004f74:	f9000282 	str	x2, [x20]
    20004f78:	97ffffda 	bl	20004ee0 <vTaskInternalSetTimeOutState>
    20004f7c:	97fff691 	bl	200029c0 <vPortExitCritical>
    20004f80:	aa1303e0 	mov	x0, x19
    20004f84:	a94153f3 	ldp	x19, x20, [sp, #16]
    20004f88:	a8c27bfd 	ldp	x29, x30, [sp], #32
    20004f8c:	d65f03c0 	ret
    20004f90:	97fff68c 	bl	200029c0 <vPortExitCritical>
    20004f94:	d2800033 	mov	x19, #0x1                   	// #1
    20004f98:	aa1303e0 	mov	x0, x19
    20004f9c:	a94153f3 	ldp	x19, x20, [sp, #16]
    20004fa0:	a8c27bfd 	ldp	x29, x30, [sp], #32
    20004fa4:	d65f03c0 	ret
    20004fa8:	d503201f 	nop
    20004fac:	d503201f 	nop

0000000020004fb0 <vTaskMissedYield>:
    20004fb0:	d2800021 	mov	x1, #0x1                   	// #1
    20004fb4:	90000020 	adrp	x0, 20008000 <__bss_start>
    20004fb8:	911ca000 	add	x0, x0, #0x728
    20004fbc:	f9010c01 	str	x1, [x0, #536]
    20004fc0:	d65f03c0 	ret
    20004fc4:	d503201f 	nop
    20004fc8:	d503201f 	nop
    20004fcc:	d503201f 	nop

0000000020004fd0 <xTaskGetCurrentTaskHandle>:
    20004fd0:	f0000000 	adrp	x0, 20007000 <pt_config>
    20004fd4:	f940a800 	ldr	x0, [x0, #336]
    20004fd8:	f9400000 	ldr	x0, [x0]
    20004fdc:	d65f03c0 	ret

0000000020004fe0 <xTaskGetSchedulerState>:
    20004fe0:	90000021 	adrp	x1, 20008000 <__bss_start>
    20004fe4:	911ca021 	add	x1, x1, #0x728
    20004fe8:	f940f422 	ldr	x2, [x1, #488]
    20004fec:	d2800020 	mov	x0, #0x1                   	// #1
    20004ff0:	b40000a2 	cbz	x2, 20005004 <xTaskGetSchedulerState+0x24>
    20004ff4:	f9410020 	ldr	x0, [x1, #512]
    20004ff8:	f100001f 	cmp	x0, #0x0
    20004ffc:	9a9f17e0 	cset	x0, eq  // eq = none
    20005000:	d37ff800 	lsl	x0, x0, #1
    20005004:	d65f03c0 	ret
    20005008:	d503201f 	nop
    2000500c:	d503201f 	nop

0000000020005010 <xTaskPriorityInherit>:
    20005010:	b40004e0 	cbz	x0, 200050ac <xTaskPriorityInherit+0x9c>
    20005014:	a9bc7bfd 	stp	x29, x30, [sp, #-64]!
    20005018:	910003fd 	mov	x29, sp
    2000501c:	a90153f3 	stp	x19, x20, [sp, #16]
    20005020:	d0000014 	adrp	x20, 20007000 <pt_config>
    20005024:	aa0003f3 	mov	x19, x0
    20005028:	f940aa81 	ldr	x1, [x20, #336]
    2000502c:	f9402c00 	ldr	x0, [x0, #88]
    20005030:	f9400022 	ldr	x2, [x1]
    20005034:	f9402c42 	ldr	x2, [x2, #88]
    20005038:	eb02001f 	cmp	x0, x2
    2000503c:	54000123 	b.cc	20005060 <xTaskPriorityInherit+0x50>  // b.lo, b.ul, b.last
    20005040:	f9400020 	ldr	x0, [x1]
    20005044:	f9403e61 	ldr	x1, [x19, #120]
    20005048:	f9402c00 	ldr	x0, [x0, #88]
    2000504c:	eb00003f 	cmp	x1, x0
    20005050:	9a9f27e0 	cset	x0, cc  // cc = lo, ul, last
    20005054:	a94153f3 	ldp	x19, x20, [sp, #16]
    20005058:	a8c47bfd 	ldp	x29, x30, [sp], #64
    2000505c:	d65f03c0 	ret
    20005060:	a9025bf5 	stp	x21, x22, [sp, #32]
    20005064:	f9401a62 	ldr	x2, [x19, #48]
    20005068:	36f80262 	tbz	w2, #31, 200050b4 <xTaskPriorityInherit+0xa4>
    2000506c:	f9401661 	ldr	x1, [x19, #40]
    20005070:	8b000800 	add	x0, x0, x0, lsl #2
    20005074:	f0000015 	adrp	x21, 20008000 <__bss_start>
    20005078:	911ca2b6 	add	x22, x21, #0x728
    2000507c:	8b000ec0 	add	x0, x22, x0, lsl #3
    20005080:	eb00003f 	cmp	x1, x0
    20005084:	54000240 	b.eq	200050cc <xTaskPriorityInherit+0xbc>  // b.none
    20005088:	f940aa94 	ldr	x20, [x20, #336]
    2000508c:	d2800020 	mov	x0, #0x1                   	// #1
    20005090:	a9425bf5 	ldp	x21, x22, [sp, #32]
    20005094:	f9400281 	ldr	x1, [x20]
    20005098:	f9402c21 	ldr	x1, [x1, #88]
    2000509c:	f9002e61 	str	x1, [x19, #88]
    200050a0:	a94153f3 	ldp	x19, x20, [sp, #16]
    200050a4:	a8c47bfd 	ldp	x29, x30, [sp], #64
    200050a8:	d65f03c0 	ret
    200050ac:	d2800000 	mov	x0, #0x0                   	// #0
    200050b0:	d65f03c0 	ret
    200050b4:	f9400022 	ldr	x2, [x1]
    200050b8:	d2800101 	mov	x1, #0x8                   	// #8
    200050bc:	f9402c42 	ldr	x2, [x2, #88]
    200050c0:	cb020021 	sub	x1, x1, x2
    200050c4:	f9001a61 	str	x1, [x19, #48]
    200050c8:	17ffffe9 	b	2000506c <xTaskPriorityInherit+0x5c>
    200050cc:	f9001bf7 	str	x23, [sp, #48]
    200050d0:	91002277 	add	x23, x19, #0x8
    200050d4:	aa1703e0 	mov	x0, x23
    200050d8:	97fff8c6 	bl	200033f0 <uxListRemove>
    200050dc:	b50000e0 	cbnz	x0, 200050f8 <xTaskPriorityInherit+0xe8>
    200050e0:	f9402e62 	ldr	x2, [x19, #88]
    200050e4:	d2800020 	mov	x0, #0x1                   	// #1
    200050e8:	f940a6c1 	ldr	x1, [x22, #328]
    200050ec:	9ac22000 	lsl	x0, x0, x2
    200050f0:	8a200020 	bic	x0, x1, x0
    200050f4:	f900a6c0 	str	x0, [x22, #328]
    200050f8:	f940aa94 	ldr	x20, [x20, #336]
    200050fc:	911ca2a3 	add	x3, x21, #0x728
    20005100:	d2800035 	mov	x21, #0x1                   	// #1
    20005104:	aa1703e1 	mov	x1, x23
    20005108:	f9400280 	ldr	x0, [x20]
    2000510c:	f940a465 	ldr	x5, [x3, #328]
    20005110:	f9402c02 	ldr	x2, [x0, #88]
    20005114:	9ac222a4 	lsl	x4, x21, x2
    20005118:	8b020840 	add	x0, x2, x2, lsl #2
    2000511c:	f9002e62 	str	x2, [x19, #88]
    20005120:	aa050082 	orr	x2, x4, x5
    20005124:	8b000c60 	add	x0, x3, x0, lsl #3
    20005128:	f900a462 	str	x2, [x3, #328]
    2000512c:	97fff88d 	bl	20003360 <vListInsertEnd>
    20005130:	aa1503e0 	mov	x0, x21
    20005134:	a9425bf5 	ldp	x21, x22, [sp, #32]
    20005138:	f9401bf7 	ldr	x23, [sp, #48]
    2000513c:	17ffffc6 	b	20005054 <xTaskPriorityInherit+0x44>

0000000020005140 <xTaskPriorityDisinherit>:
    20005140:	b40001e0 	cbz	x0, 2000517c <xTaskPriorityDisinherit+0x3c>
    20005144:	a9bd7bfd 	stp	x29, x30, [sp, #-48]!
    20005148:	910003fd 	mov	x29, sp
    2000514c:	a90153f3 	stp	x19, x20, [sp, #16]
    20005150:	aa0003f3 	mov	x19, x0
    20005154:	f9402c02 	ldr	x2, [x0, #88]
    20005158:	a9478001 	ldp	x1, x0, [x0, #120]
    2000515c:	f1000400 	subs	x0, x0, #0x1
    20005160:	fa410044 	ccmp	x2, x1, #0x4, eq  // eq = none
    20005164:	f9004260 	str	x0, [x19, #128]
    20005168:	d2800000 	mov	x0, #0x0                   	// #0
    2000516c:	540000c1 	b.ne	20005184 <xTaskPriorityDisinherit+0x44>  // b.any
    20005170:	a94153f3 	ldp	x19, x20, [sp, #16]
    20005174:	a8c37bfd 	ldp	x29, x30, [sp], #48
    20005178:	d65f03c0 	ret
    2000517c:	d2800000 	mov	x0, #0x0                   	// #0
    20005180:	d65f03c0 	ret
    20005184:	f90013f5 	str	x21, [sp, #32]
    20005188:	91002275 	add	x21, x19, #0x8
    2000518c:	aa1503e0 	mov	x0, x21
    20005190:	97fff898 	bl	200033f0 <uxListRemove>
    20005194:	f0000002 	adrp	x2, 20008000 <__bss_start>
    20005198:	b5000180 	cbnz	x0, 200051c8 <xTaskPriorityDisinherit+0x88>
    2000519c:	f9402e61 	ldr	x1, [x19, #88]
    200051a0:	911ca043 	add	x3, x2, #0x728
    200051a4:	8b010820 	add	x0, x1, x1, lsl #2
    200051a8:	d37df000 	lsl	x0, x0, #3
    200051ac:	f8606860 	ldr	x0, [x3, x0]
    200051b0:	b50000c0 	cbnz	x0, 200051c8 <xTaskPriorityDisinherit+0x88>
    200051b4:	f940a464 	ldr	x4, [x3, #328]
    200051b8:	d2800020 	mov	x0, #0x1                   	// #1
    200051bc:	9ac12001 	lsl	x1, x0, x1
    200051c0:	8a210081 	bic	x1, x4, x1
    200051c4:	f900a461 	str	x1, [x3, #328]
    200051c8:	911ca042 	add	x2, x2, #0x728
    200051cc:	f9403e63 	ldr	x3, [x19, #120]
    200051d0:	d2800034 	mov	x20, #0x1                   	// #1
    200051d4:	d2800105 	mov	x5, #0x8                   	// #8
    200051d8:	aa1503e1 	mov	x1, x21
    200051dc:	f940a446 	ldr	x6, [x2, #328]
    200051e0:	9ac32284 	lsl	x4, x20, x3
    200051e4:	cb0300a5 	sub	x5, x5, x3
    200051e8:	8b030860 	add	x0, x3, x3, lsl #2
    200051ec:	f9002e63 	str	x3, [x19, #88]
    200051f0:	aa060083 	orr	x3, x4, x6
    200051f4:	8b000c40 	add	x0, x2, x0, lsl #3
    200051f8:	f9001a65 	str	x5, [x19, #48]
    200051fc:	f900a443 	str	x3, [x2, #328]
    20005200:	97fff858 	bl	20003360 <vListInsertEnd>
    20005204:	aa1403e0 	mov	x0, x20
    20005208:	a94153f3 	ldp	x19, x20, [sp, #16]
    2000520c:	f94013f5 	ldr	x21, [sp, #32]
    20005210:	a8c37bfd 	ldp	x29, x30, [sp], #48
    20005214:	d65f03c0 	ret
    20005218:	d503201f 	nop
    2000521c:	d503201f 	nop

0000000020005220 <vTaskPriorityDisinheritAfterTimeout>:
    20005220:	b4000220 	cbz	x0, 20005264 <vTaskPriorityDisinheritAfterTimeout+0x44>
    20005224:	a9bd7bfd 	stp	x29, x30, [sp, #-48]!
    20005228:	910003fd 	mov	x29, sp
    2000522c:	a90153f3 	stp	x19, x20, [sp, #16]
    20005230:	aa0003f3 	mov	x19, x0
    20005234:	f9402c02 	ldr	x2, [x0, #88]
    20005238:	f9403c00 	ldr	x0, [x0, #120]
    2000523c:	eb01001f 	cmp	x0, x1
    20005240:	9a812001 	csel	x1, x0, x1, cs  // cs = hs, nlast
    20005244:	eb01005f 	cmp	x2, x1
    20005248:	54000080 	b.eq	20005258 <vTaskPriorityDisinheritAfterTimeout+0x38>  // b.none
    2000524c:	f9404260 	ldr	x0, [x19, #128]
    20005250:	f100041f 	cmp	x0, #0x1
    20005254:	540000a0 	b.eq	20005268 <vTaskPriorityDisinheritAfterTimeout+0x48>  // b.none
    20005258:	a94153f3 	ldp	x19, x20, [sp, #16]
    2000525c:	a8c37bfd 	ldp	x29, x30, [sp], #48
    20005260:	d65f03c0 	ret
    20005264:	d65f03c0 	ret
    20005268:	a9025bf5 	stp	x21, x22, [sp, #32]
    2000526c:	f9002e61 	str	x1, [x19, #88]
    20005270:	f9401a60 	ldr	x0, [x19, #48]
    20005274:	37f80080 	tbnz	w0, #31, 20005284 <vTaskPriorityDisinheritAfterTimeout+0x64>
    20005278:	d2800100 	mov	x0, #0x8                   	// #8
    2000527c:	cb010001 	sub	x1, x0, x1
    20005280:	f9001a61 	str	x1, [x19, #48]
    20005284:	f9401660 	ldr	x0, [x19, #40]
    20005288:	8b020842 	add	x2, x2, x2, lsl #2
    2000528c:	f0000014 	adrp	x20, 20008000 <__bss_start>
    20005290:	911ca295 	add	x21, x20, #0x728
    20005294:	8b020ea2 	add	x2, x21, x2, lsl #3
    20005298:	eb02001f 	cmp	x0, x2
    2000529c:	540000a0 	b.eq	200052b0 <vTaskPriorityDisinheritAfterTimeout+0x90>  // b.none
    200052a0:	a94153f3 	ldp	x19, x20, [sp, #16]
    200052a4:	a9425bf5 	ldp	x21, x22, [sp, #32]
    200052a8:	a8c37bfd 	ldp	x29, x30, [sp], #48
    200052ac:	d65f03c0 	ret
    200052b0:	91002276 	add	x22, x19, #0x8
    200052b4:	aa1603e0 	mov	x0, x22
    200052b8:	97fff84e 	bl	200033f0 <uxListRemove>
    200052bc:	b40001e0 	cbz	x0, 200052f8 <vTaskPriorityDisinheritAfterTimeout+0xd8>
    200052c0:	f9402e60 	ldr	x0, [x19, #88]
    200052c4:	d2800022 	mov	x2, #0x1                   	// #1
    200052c8:	9ac02042 	lsl	x2, x2, x0
    200052cc:	911ca294 	add	x20, x20, #0x728
    200052d0:	8b000800 	add	x0, x0, x0, lsl #2
    200052d4:	aa1603e1 	mov	x1, x22
    200052d8:	f940a683 	ldr	x3, [x20, #328]
    200052dc:	8b000e80 	add	x0, x20, x0, lsl #3
    200052e0:	a9425bf5 	ldp	x21, x22, [sp, #32]
    200052e4:	aa020062 	orr	x2, x3, x2
    200052e8:	f900a682 	str	x2, [x20, #328]
    200052ec:	a94153f3 	ldp	x19, x20, [sp, #16]
    200052f0:	a8c37bfd 	ldp	x29, x30, [sp], #48
    200052f4:	17fff81b 	b	20003360 <vListInsertEnd>
    200052f8:	f9402e60 	ldr	x0, [x19, #88]
    200052fc:	d2800022 	mov	x2, #0x1                   	// #1
    20005300:	f940a6a1 	ldr	x1, [x21, #328]
    20005304:	9ac02042 	lsl	x2, x2, x0
    20005308:	8a220021 	bic	x1, x1, x2
    2000530c:	f900a6a1 	str	x1, [x21, #328]
    20005310:	17ffffef 	b	200052cc <vTaskPriorityDisinheritAfterTimeout+0xac>
    20005314:	d503201f 	nop
    20005318:	d503201f 	nop
    2000531c:	d503201f 	nop

0000000020005320 <uxTaskResetEventItemValue>:
    20005320:	d0000000 	adrp	x0, 20007000 <pt_config>
    20005324:	d2800101 	mov	x1, #0x8                   	// #8
    20005328:	f940a800 	ldr	x0, [x0, #336]
    2000532c:	f9400004 	ldr	x4, [x0]
    20005330:	f9400003 	ldr	x3, [x0]
    20005334:	f9400002 	ldr	x2, [x0]
    20005338:	f9401880 	ldr	x0, [x4, #48]
    2000533c:	f9402c63 	ldr	x3, [x3, #88]
    20005340:	cb030021 	sub	x1, x1, x3
    20005344:	f9001841 	str	x1, [x2, #48]
    20005348:	d65f03c0 	ret
    2000534c:	d503201f 	nop

0000000020005350 <pvTaskIncrementMutexHeldCount>:
    20005350:	d0000000 	adrp	x0, 20007000 <pt_config>
    20005354:	f940a801 	ldr	x1, [x0, #336]
    20005358:	f9400022 	ldr	x2, [x1]
    2000535c:	b40000a2 	cbz	x2, 20005370 <pvTaskIncrementMutexHeldCount+0x20>
    20005360:	f9400022 	ldr	x2, [x1]
    20005364:	f9404041 	ldr	x1, [x2, #128]
    20005368:	91000421 	add	x1, x1, #0x1
    2000536c:	f9004041 	str	x1, [x2, #128]
    20005370:	f940a800 	ldr	x0, [x0, #336]
    20005374:	f9400000 	ldr	x0, [x0]
    20005378:	d65f03c0 	ret
    2000537c:	d503201f 	nop

0000000020005380 <ulTaskNotifyTake>:
    20005380:	a9bd7bfd 	stp	x29, x30, [sp, #-48]!
    20005384:	910003fd 	mov	x29, sp
    20005388:	a90153f3 	stp	x19, x20, [sp, #16]
    2000538c:	aa0103f4 	mov	x20, x1
    20005390:	d0000013 	adrp	x19, 20007000 <pt_config>
    20005394:	f90013f5 	str	x21, [sp, #32]
    20005398:	aa0003f5 	mov	x21, x0
    2000539c:	97fff5ed 	bl	20002b50 <vPortEnterCritical>
    200053a0:	f940aa61 	ldr	x1, [x19, #336]
    200053a4:	f9400020 	ldr	x0, [x1]
    200053a8:	b9408800 	ldr	w0, [x0, #136]
    200053ac:	350000a0 	cbnz	w0, 200053c0 <ulTaskNotifyTake+0x40>
    200053b0:	f9400020 	ldr	x0, [x1]
    200053b4:	52800021 	mov	w1, #0x1                   	// #1
    200053b8:	39023001 	strb	w1, [x0, #140]
    200053bc:	b50002d4 	cbnz	x20, 20005414 <ulTaskNotifyTake+0x94>
    200053c0:	97fff580 	bl	200029c0 <vPortExitCritical>
    200053c4:	97fff5e3 	bl	20002b50 <vPortEnterCritical>
    200053c8:	f940aa61 	ldr	x1, [x19, #336]
    200053cc:	f9400020 	ldr	x0, [x1]
    200053d0:	b9408814 	ldr	w20, [x0, #136]
    200053d4:	34000094 	cbz	w20, 200053e4 <ulTaskNotifyTake+0x64>
    200053d8:	f9400020 	ldr	x0, [x1]
    200053dc:	b4000175 	cbz	x21, 20005408 <ulTaskNotifyTake+0x88>
    200053e0:	b900881f 	str	wzr, [x0, #136]
    200053e4:	f940aa73 	ldr	x19, [x19, #336]
    200053e8:	f9400260 	ldr	x0, [x19]
    200053ec:	3902301f 	strb	wzr, [x0, #140]
    200053f0:	97fff574 	bl	200029c0 <vPortExitCritical>
    200053f4:	2a1403e0 	mov	w0, w20
    200053f8:	a94153f3 	ldp	x19, x20, [sp, #16]
    200053fc:	f94013f5 	ldr	x21, [sp, #32]
    20005400:	a8c37bfd 	ldp	x29, x30, [sp], #48
    20005404:	d65f03c0 	ret
    20005408:	51000681 	sub	w1, w20, #0x1
    2000540c:	b9008801 	str	w1, [x0, #136]
    20005410:	17fffff5 	b	200053e4 <ulTaskNotifyTake+0x64>
    20005414:	aa1403e0 	mov	x0, x20
    20005418:	97fffbf2 	bl	200043e0 <prvAddCurrentTaskToDelayedList.isra.0>
    2000541c:	d4000001 	svc	#0x0
    20005420:	17ffffe8 	b	200053c0 <ulTaskNotifyTake+0x40>
    20005424:	d503201f 	nop
    20005428:	d503201f 	nop
    2000542c:	d503201f 	nop

0000000020005430 <xTaskNotifyWait>:
    20005430:	a9bc7bfd 	stp	x29, x30, [sp, #-64]!
    20005434:	910003fd 	mov	x29, sp
    20005438:	a90153f3 	stp	x19, x20, [sp, #16]
    2000543c:	2a0003f4 	mov	w20, w0
    20005440:	d0000013 	adrp	x19, 20007000 <pt_config>
    20005444:	a9025bf5 	stp	x21, x22, [sp, #32]
    20005448:	2a0103f6 	mov	w22, w1
    2000544c:	aa0203f5 	mov	x21, x2
    20005450:	f9001bf7 	str	x23, [sp, #48]
    20005454:	aa0303f7 	mov	x23, x3
    20005458:	97fff5be 	bl	20002b50 <vPortEnterCritical>
    2000545c:	f940aa62 	ldr	x2, [x19, #336]
    20005460:	f9400040 	ldr	x0, [x2]
    20005464:	39423001 	ldrb	w1, [x0, #140]
    20005468:	12001c21 	and	w1, w1, #0xff
    2000546c:	7100083f 	cmp	w1, #0x2
    20005470:	54000120 	b.eq	20005494 <xTaskNotifyWait+0x64>  // b.none
    20005474:	f9400041 	ldr	x1, [x2]
    20005478:	52800023 	mov	w3, #0x1                   	// #1
    2000547c:	b9408820 	ldr	w0, [x1, #136]
    20005480:	0a340014 	bic	w20, w0, w20
    20005484:	b9008834 	str	w20, [x1, #136]
    20005488:	f9400040 	ldr	x0, [x2]
    2000548c:	39023003 	strb	w3, [x0, #140]
    20005490:	b50003d7 	cbnz	x23, 20005508 <xTaskNotifyWait+0xd8>
    20005494:	97fff54b 	bl	200029c0 <vPortExitCritical>
    20005498:	97fff5ae 	bl	20002b50 <vPortEnterCritical>
    2000549c:	b40000b5 	cbz	x21, 200054b0 <xTaskNotifyWait+0x80>
    200054a0:	f940aa60 	ldr	x0, [x19, #336]
    200054a4:	f9400000 	ldr	x0, [x0]
    200054a8:	b9408800 	ldr	w0, [x0, #136]
    200054ac:	b90002a0 	str	w0, [x21]
    200054b0:	f940aa60 	ldr	x0, [x19, #336]
    200054b4:	d2800014 	mov	x20, #0x0                   	// #0
    200054b8:	f9400001 	ldr	x1, [x0]
    200054bc:	39423021 	ldrb	w1, [x1, #140]
    200054c0:	12001c21 	and	w1, w1, #0xff
    200054c4:	7100083f 	cmp	w1, #0x2
    200054c8:	540000c1 	b.ne	200054e0 <xTaskNotifyWait+0xb0>  // b.any
    200054cc:	f9400000 	ldr	x0, [x0]
    200054d0:	d2800034 	mov	x20, #0x1                   	// #1
    200054d4:	b9408801 	ldr	w1, [x0, #136]
    200054d8:	0a360036 	bic	w22, w1, w22
    200054dc:	b9008816 	str	w22, [x0, #136]
    200054e0:	f940aa73 	ldr	x19, [x19, #336]
    200054e4:	f9400260 	ldr	x0, [x19]
    200054e8:	3902301f 	strb	wzr, [x0, #140]
    200054ec:	97fff535 	bl	200029c0 <vPortExitCritical>
    200054f0:	aa1403e0 	mov	x0, x20
    200054f4:	a94153f3 	ldp	x19, x20, [sp, #16]
    200054f8:	a9425bf5 	ldp	x21, x22, [sp, #32]
    200054fc:	f9401bf7 	ldr	x23, [sp, #48]
    20005500:	a8c47bfd 	ldp	x29, x30, [sp], #64
    20005504:	d65f03c0 	ret
    20005508:	aa1703e0 	mov	x0, x23
    2000550c:	97fffbb5 	bl	200043e0 <prvAddCurrentTaskToDelayedList.isra.0>
    20005510:	d4000001 	svc	#0x0
    20005514:	17ffffe0 	b	20005494 <xTaskNotifyWait+0x64>
    20005518:	d503201f 	nop
    2000551c:	d503201f 	nop

0000000020005520 <xTaskGenericNotify>:
    20005520:	a9bd7bfd 	stp	x29, x30, [sp, #-48]!
    20005524:	910003fd 	mov	x29, sp
    20005528:	a9025bf5 	stp	x21, x22, [sp, #32]
    2000552c:	aa0303f5 	mov	x21, x3
    20005530:	2a0103f6 	mov	w22, w1
    20005534:	a90153f3 	stp	x19, x20, [sp, #16]
    20005538:	aa0003f3 	mov	x19, x0
    2000553c:	2a0203f4 	mov	w20, w2
    20005540:	97fff584 	bl	20002b50 <vPortEnterCritical>
    20005544:	b4000075 	cbz	x21, 20005550 <xTaskGenericNotify+0x30>
    20005548:	b9408a60 	ldr	w0, [x19, #136]
    2000554c:	b90002a0 	str	w0, [x21]
    20005550:	39423262 	ldrb	w2, [x19, #140]
    20005554:	52800040 	mov	w0, #0x2                   	// #2
    20005558:	71000e9f 	cmp	w20, #0x3
    2000555c:	39023260 	strb	w0, [x19, #140]
    20005560:	12001c42 	and	w2, w2, #0xff
    20005564:	540002e0 	b.eq	200055c0 <xTaskGenericNotify+0xa0>  // b.none
    20005568:	54000228 	b.hi	200055ac <xTaskGenericNotify+0x8c>  // b.pmore
    2000556c:	7100069f 	cmp	w20, #0x1
    20005570:	54000680 	b.eq	20005640 <xTaskGenericNotify+0x120>  // b.none
    20005574:	71000a9f 	cmp	w20, #0x2
    20005578:	54000081 	b.ne	20005588 <xTaskGenericNotify+0x68>  // b.any
    2000557c:	b9408a60 	ldr	w0, [x19, #136]
    20005580:	11000400 	add	w0, w0, #0x1
    20005584:	b9008a60 	str	w0, [x19, #136]
    20005588:	7100045f 	cmp	w2, #0x1
    2000558c:	54000200 	b.eq	200055cc <xTaskGenericNotify+0xac>  // b.none
    20005590:	d2800034 	mov	x20, #0x1                   	// #1
    20005594:	97fff50b 	bl	200029c0 <vPortExitCritical>
    20005598:	aa1403e0 	mov	x0, x20
    2000559c:	a94153f3 	ldp	x19, x20, [sp, #16]
    200055a0:	a9425bf5 	ldp	x21, x22, [sp, #32]
    200055a4:	a8c37bfd 	ldp	x29, x30, [sp], #48
    200055a8:	d65f03c0 	ret
    200055ac:	7100129f 	cmp	w20, #0x4
    200055b0:	54fffec1 	b.ne	20005588 <xTaskGenericNotify+0x68>  // b.any
    200055b4:	7100085f 	cmp	w2, #0x2
    200055b8:	d2800014 	mov	x20, #0x0                   	// #0
    200055bc:	54fffec0 	b.eq	20005594 <xTaskGenericNotify+0x74>  // b.none
    200055c0:	7100045f 	cmp	w2, #0x1
    200055c4:	b9008a76 	str	w22, [x19, #136]
    200055c8:	54fffe41 	b.ne	20005590 <xTaskGenericNotify+0x70>  // b.any
    200055cc:	91002275 	add	x21, x19, #0x8
    200055d0:	d2800034 	mov	x20, #0x1                   	// #1
    200055d4:	aa1503e0 	mov	x0, x21
    200055d8:	97fff786 	bl	200033f0 <uxListRemove>
    200055dc:	f0000002 	adrp	x2, 20008000 <__bss_start>
    200055e0:	911ca042 	add	x2, x2, #0x728
    200055e4:	f9402e60 	ldr	x0, [x19, #88]
    200055e8:	aa1503e1 	mov	x1, x21
    200055ec:	f940a444 	ldr	x4, [x2, #328]
    200055f0:	9ac02283 	lsl	x3, x20, x0
    200055f4:	8b000800 	add	x0, x0, x0, lsl #2
    200055f8:	aa040063 	orr	x3, x3, x4
    200055fc:	8b000c40 	add	x0, x2, x0, lsl #3
    20005600:	f900a443 	str	x3, [x2, #328]
    20005604:	97fff757 	bl	20003360 <vListInsertEnd>
    20005608:	d0000000 	adrp	x0, 20007000 <pt_config>
    2000560c:	f9402e61 	ldr	x1, [x19, #88]
    20005610:	f940a800 	ldr	x0, [x0, #336]
    20005614:	f9400000 	ldr	x0, [x0]
    20005618:	f9402c00 	ldr	x0, [x0, #88]
    2000561c:	eb00003f 	cmp	x1, x0
    20005620:	54fffb89 	b.ls	20005590 <xTaskGenericNotify+0x70>  // b.plast
    20005624:	d4000001 	svc	#0x0
    20005628:	97fff4e6 	bl	200029c0 <vPortExitCritical>
    2000562c:	aa1403e0 	mov	x0, x20
    20005630:	a94153f3 	ldp	x19, x20, [sp, #16]
    20005634:	a9425bf5 	ldp	x21, x22, [sp, #32]
    20005638:	a8c37bfd 	ldp	x29, x30, [sp], #48
    2000563c:	d65f03c0 	ret
    20005640:	b9408a61 	ldr	w1, [x19, #136]
    20005644:	7100045f 	cmp	w2, #0x1
    20005648:	2a160021 	orr	w1, w1, w22
    2000564c:	b9008a61 	str	w1, [x19, #136]
    20005650:	54fffa01 	b.ne	20005590 <xTaskGenericNotify+0x70>  // b.any
    20005654:	17ffffde 	b	200055cc <xTaskGenericNotify+0xac>
    20005658:	d503201f 	nop
    2000565c:	d503201f 	nop

0000000020005660 <xTaskGenericNotifyFromISR>:
    20005660:	a9bc7bfd 	stp	x29, x30, [sp, #-64]!
    20005664:	910003fd 	mov	x29, sp
    20005668:	a90153f3 	stp	x19, x20, [sp, #16]
    2000566c:	aa0003f3 	mov	x19, x0
    20005670:	2a0203f4 	mov	w20, w2
    20005674:	a9025bf5 	stp	x21, x22, [sp, #32]
    20005678:	aa0303f5 	mov	x21, x3
    2000567c:	a90363f7 	stp	x23, x24, [sp, #48]
    20005680:	2a0103f7 	mov	w23, w1
    20005684:	aa0403f8 	mov	x24, x4
    20005688:	97fff51e 	bl	20002b00 <uxPortSetInterruptMask>
    2000568c:	aa0003f6 	mov	x22, x0
    20005690:	b4000075 	cbz	x21, 2000569c <xTaskGenericNotifyFromISR+0x3c>
    20005694:	b9408a60 	ldr	w0, [x19, #136]
    20005698:	b90002a0 	str	w0, [x21]
    2000569c:	39423262 	ldrb	w2, [x19, #140]
    200056a0:	52800040 	mov	w0, #0x2                   	// #2
    200056a4:	71000e9f 	cmp	w20, #0x3
    200056a8:	39023260 	strb	w0, [x19, #140]
    200056ac:	12001c42 	and	w2, w2, #0xff
    200056b0:	54000320 	b.eq	20005714 <xTaskGenericNotifyFromISR+0xb4>  // b.none
    200056b4:	54000268 	b.hi	20005700 <xTaskGenericNotifyFromISR+0xa0>  // b.pmore
    200056b8:	7100069f 	cmp	w20, #0x1
    200056bc:	540006c0 	b.eq	20005794 <xTaskGenericNotifyFromISR+0x134>  // b.none
    200056c0:	71000a9f 	cmp	w20, #0x2
    200056c4:	54000081 	b.ne	200056d4 <xTaskGenericNotifyFromISR+0x74>  // b.any
    200056c8:	b9408a60 	ldr	w0, [x19, #136]
    200056cc:	11000400 	add	w0, w0, #0x1
    200056d0:	b9008a60 	str	w0, [x19, #136]
    200056d4:	7100045f 	cmp	w2, #0x1
    200056d8:	54000240 	b.eq	20005720 <xTaskGenericNotifyFromISR+0xc0>  // b.none
    200056dc:	d2800034 	mov	x20, #0x1                   	// #1
    200056e0:	aa1603e0 	mov	x0, x22
    200056e4:	97fff4f7 	bl	20002ac0 <vPortClearInterruptMask>
    200056e8:	aa1403e0 	mov	x0, x20
    200056ec:	a94153f3 	ldp	x19, x20, [sp, #16]
    200056f0:	a9425bf5 	ldp	x21, x22, [sp, #32]
    200056f4:	a94363f7 	ldp	x23, x24, [sp, #48]
    200056f8:	a8c47bfd 	ldp	x29, x30, [sp], #64
    200056fc:	d65f03c0 	ret
    20005700:	7100129f 	cmp	w20, #0x4
    20005704:	54fffe81 	b.ne	200056d4 <xTaskGenericNotifyFromISR+0x74>  // b.any
    20005708:	7100085f 	cmp	w2, #0x2
    2000570c:	d2800014 	mov	x20, #0x0                   	// #0
    20005710:	54fffe80 	b.eq	200056e0 <xTaskGenericNotifyFromISR+0x80>  // b.none
    20005714:	7100045f 	cmp	w2, #0x1
    20005718:	b9008a77 	str	w23, [x19, #136]
    2000571c:	54fffe01 	b.ne	200056dc <xTaskGenericNotifyFromISR+0x7c>  // b.any
    20005720:	f0000015 	adrp	x21, 20008000 <__bss_start>
    20005724:	911ca2b4 	add	x20, x21, #0x728
    20005728:	f9410280 	ldr	x0, [x20, #512]
    2000572c:	b4000400 	cbz	x0, 200057ac <xTaskGenericNotifyFromISR+0x14c>
    20005730:	91070280 	add	x0, x20, #0x1c0
    20005734:	9100c261 	add	x1, x19, #0x30
    20005738:	97fff70a 	bl	20003360 <vListInsertEnd>
    2000573c:	d0000000 	adrp	x0, 20007000 <pt_config>
    20005740:	f9402e61 	ldr	x1, [x19, #88]
    20005744:	f940a800 	ldr	x0, [x0, #336]
    20005748:	f9400000 	ldr	x0, [x0]
    2000574c:	f9402c00 	ldr	x0, [x0, #88]
    20005750:	eb00003f 	cmp	x1, x0
    20005754:	54fffc49 	b.ls	200056dc <xTaskGenericNotifyFromISR+0x7c>  // b.plast
    20005758:	b4000078 	cbz	x24, 20005764 <xTaskGenericNotifyFromISR+0x104>
    2000575c:	d2800020 	mov	x0, #0x1                   	// #1
    20005760:	f9000300 	str	x0, [x24]
    20005764:	d2800020 	mov	x0, #0x1                   	// #1
    20005768:	911ca2b5 	add	x21, x21, #0x728
    2000576c:	aa0003f4 	mov	x20, x0
    20005770:	f9010ea0 	str	x0, [x21, #536]
    20005774:	aa1603e0 	mov	x0, x22
    20005778:	97fff4d2 	bl	20002ac0 <vPortClearInterruptMask>
    2000577c:	aa1403e0 	mov	x0, x20
    20005780:	a94153f3 	ldp	x19, x20, [sp, #16]
    20005784:	a9425bf5 	ldp	x21, x22, [sp, #32]
    20005788:	a94363f7 	ldp	x23, x24, [sp, #48]
    2000578c:	a8c47bfd 	ldp	x29, x30, [sp], #64
    20005790:	d65f03c0 	ret
    20005794:	b9408a61 	ldr	w1, [x19, #136]
    20005798:	7100045f 	cmp	w2, #0x1
    2000579c:	2a170037 	orr	w23, w1, w23
    200057a0:	b9008a77 	str	w23, [x19, #136]
    200057a4:	54fff9c1 	b.ne	200056dc <xTaskGenericNotifyFromISR+0x7c>  // b.any
    200057a8:	17ffffde 	b	20005720 <xTaskGenericNotifyFromISR+0xc0>
    200057ac:	91002277 	add	x23, x19, #0x8
    200057b0:	aa1703e0 	mov	x0, x23
    200057b4:	97fff70f 	bl	200033f0 <uxListRemove>
    200057b8:	f9402e60 	ldr	x0, [x19, #88]
    200057bc:	d2800022 	mov	x2, #0x1                   	// #1
    200057c0:	aa1703e1 	mov	x1, x23
    200057c4:	f940a683 	ldr	x3, [x20, #328]
    200057c8:	9ac02042 	lsl	x2, x2, x0
    200057cc:	8b000800 	add	x0, x0, x0, lsl #2
    200057d0:	aa030042 	orr	x2, x2, x3
    200057d4:	8b000e80 	add	x0, x20, x0, lsl #3
    200057d8:	f900a682 	str	x2, [x20, #328]
    200057dc:	97fff6e1 	bl	20003360 <vListInsertEnd>
    200057e0:	17ffffd7 	b	2000573c <xTaskGenericNotifyFromISR+0xdc>
    200057e4:	d503201f 	nop
    200057e8:	d503201f 	nop
    200057ec:	d503201f 	nop

00000000200057f0 <vTaskNotifyGiveFromISR>:
    200057f0:	a9bc7bfd 	stp	x29, x30, [sp, #-64]!
    200057f4:	910003fd 	mov	x29, sp
    200057f8:	a90153f3 	stp	x19, x20, [sp, #16]
    200057fc:	aa0003f3 	mov	x19, x0
    20005800:	a9025bf5 	stp	x21, x22, [sp, #32]
    20005804:	aa0103f5 	mov	x21, x1
    20005808:	97fff4be 	bl	20002b00 <uxPortSetInterruptMask>
    2000580c:	52800043 	mov	w3, #0x2                   	// #2
    20005810:	39423262 	ldrb	w2, [x19, #140]
    20005814:	aa0003f4 	mov	x20, x0
    20005818:	39023263 	strb	w3, [x19, #140]
    2000581c:	b9408a60 	ldr	w0, [x19, #136]
    20005820:	12001c42 	and	w2, w2, #0xff
    20005824:	7100045f 	cmp	w2, #0x1
    20005828:	11000400 	add	w0, w0, #0x1
    2000582c:	b9008a60 	str	w0, [x19, #136]
    20005830:	540000c0 	b.eq	20005848 <vTaskNotifyGiveFromISR+0x58>  // b.none
    20005834:	aa1403e0 	mov	x0, x20
    20005838:	a94153f3 	ldp	x19, x20, [sp, #16]
    2000583c:	a9425bf5 	ldp	x21, x22, [sp, #32]
    20005840:	a8c47bfd 	ldp	x29, x30, [sp], #64
    20005844:	17fff49f 	b	20002ac0 <vPortClearInterruptMask>
    20005848:	a90363f7 	stp	x23, x24, [sp, #48]
    2000584c:	f0000017 	adrp	x23, 20008000 <__bss_start>
    20005850:	911ca2f6 	add	x22, x23, #0x728
    20005854:	f94102c0 	ldr	x0, [x22, #512]
    20005858:	b40002e0 	cbz	x0, 200058b4 <vTaskNotifyGiveFromISR+0xc4>
    2000585c:	910702c0 	add	x0, x22, #0x1c0
    20005860:	9100c261 	add	x1, x19, #0x30
    20005864:	97fff6bf 	bl	20003360 <vListInsertEnd>
    20005868:	d0000000 	adrp	x0, 20007000 <pt_config>
    2000586c:	f9402e61 	ldr	x1, [x19, #88]
    20005870:	f940a800 	ldr	x0, [x0, #336]
    20005874:	f9400000 	ldr	x0, [x0]
    20005878:	f9402c00 	ldr	x0, [x0, #88]
    2000587c:	eb00003f 	cmp	x1, x0
    20005880:	54000429 	b.ls	20005904 <vTaskNotifyGiveFromISR+0x114>  // b.plast
    20005884:	b4000075 	cbz	x21, 20005890 <vTaskNotifyGiveFromISR+0xa0>
    20005888:	d2800020 	mov	x0, #0x1                   	// #1
    2000588c:	f90002a0 	str	x0, [x21]
    20005890:	911ca2f7 	add	x23, x23, #0x728
    20005894:	d2800020 	mov	x0, #0x1                   	// #1
    20005898:	a9425bf5 	ldp	x21, x22, [sp, #32]
    2000589c:	f9010ee0 	str	x0, [x23, #536]
    200058a0:	aa1403e0 	mov	x0, x20
    200058a4:	a94153f3 	ldp	x19, x20, [sp, #16]
    200058a8:	a94363f7 	ldp	x23, x24, [sp, #48]
    200058ac:	a8c47bfd 	ldp	x29, x30, [sp], #64
    200058b0:	17fff484 	b	20002ac0 <vPortClearInterruptMask>
    200058b4:	91002278 	add	x24, x19, #0x8
    200058b8:	aa1803e0 	mov	x0, x24
    200058bc:	97fff6cd 	bl	200033f0 <uxListRemove>
    200058c0:	f9402e60 	ldr	x0, [x19, #88]
    200058c4:	d2800022 	mov	x2, #0x1                   	// #1
    200058c8:	aa1803e1 	mov	x1, x24
    200058cc:	f940a6c3 	ldr	x3, [x22, #328]
    200058d0:	9ac02042 	lsl	x2, x2, x0
    200058d4:	8b000800 	add	x0, x0, x0, lsl #2
    200058d8:	aa030042 	orr	x2, x2, x3
    200058dc:	8b000ec0 	add	x0, x22, x0, lsl #3
    200058e0:	f900a6c2 	str	x2, [x22, #328]
    200058e4:	97fff69f 	bl	20003360 <vListInsertEnd>
    200058e8:	d0000000 	adrp	x0, 20007000 <pt_config>
    200058ec:	f9402e61 	ldr	x1, [x19, #88]
    200058f0:	f940a800 	ldr	x0, [x0, #336]
    200058f4:	f9400000 	ldr	x0, [x0]
    200058f8:	f9402c00 	ldr	x0, [x0, #88]
    200058fc:	eb00003f 	cmp	x1, x0
    20005900:	54fffc28 	b.hi	20005884 <vTaskNotifyGiveFromISR+0x94>  // b.pmore
    20005904:	aa1403e0 	mov	x0, x20
    20005908:	a94153f3 	ldp	x19, x20, [sp, #16]
    2000590c:	a9425bf5 	ldp	x21, x22, [sp, #32]
    20005910:	a94363f7 	ldp	x23, x24, [sp, #48]
    20005914:	a8c47bfd 	ldp	x29, x30, [sp], #64
    20005918:	17fff46a 	b	20002ac0 <vPortClearInterruptMask>
    2000591c:	d503201f 	nop

0000000020005920 <xTaskNotifyStateClear>:
    20005920:	a9be7bfd 	stp	x29, x30, [sp, #-32]!
    20005924:	910003fd 	mov	x29, sp
    20005928:	a90153f3 	stp	x19, x20, [sp, #16]
    2000592c:	aa0003f3 	mov	x19, x0
    20005930:	b40001c0 	cbz	x0, 20005968 <xTaskNotifyStateClear+0x48>
    20005934:	d2800014 	mov	x20, #0x0                   	// #0
    20005938:	97fff486 	bl	20002b50 <vPortEnterCritical>
    2000593c:	39423261 	ldrb	w1, [x19, #140]
    20005940:	12001c21 	and	w1, w1, #0xff
    20005944:	7100083f 	cmp	w1, #0x2
    20005948:	54000061 	b.ne	20005954 <xTaskNotifyStateClear+0x34>  // b.any
    2000594c:	d2800034 	mov	x20, #0x1                   	// #1
    20005950:	3902327f 	strb	wzr, [x19, #140]
    20005954:	97fff41b 	bl	200029c0 <vPortExitCritical>
    20005958:	aa1403e0 	mov	x0, x20
    2000595c:	a94153f3 	ldp	x19, x20, [sp, #16]
    20005960:	a8c27bfd 	ldp	x29, x30, [sp], #32
    20005964:	d65f03c0 	ret
    20005968:	d0000000 	adrp	x0, 20007000 <pt_config>
    2000596c:	f940a800 	ldr	x0, [x0, #336]
    20005970:	f9400013 	ldr	x19, [x0]
    20005974:	17fffff0 	b	20005934 <xTaskNotifyStateClear+0x14>
    20005978:	d503201f 	nop
    2000597c:	d503201f 	nop

0000000020005980 <ulTaskNotifyValueClear>:
    20005980:	a9bd7bfd 	stp	x29, x30, [sp, #-48]!
    20005984:	910003fd 	mov	x29, sp
    20005988:	a90153f3 	stp	x19, x20, [sp, #16]
    2000598c:	2a0103f4 	mov	w20, w1
    20005990:	f90013f5 	str	x21, [sp, #32]
    20005994:	b4000200 	cbz	x0, 200059d4 <ulTaskNotifyValueClear+0x54>
    20005998:	aa0003f3 	mov	x19, x0
    2000599c:	d0000015 	adrp	x21, 20007000 <pt_config>
    200059a0:	97fff46c 	bl	20002b50 <vPortEnterCritical>
    200059a4:	f940aaa0 	ldr	x0, [x21, #336]
    200059a8:	f9400000 	ldr	x0, [x0]
    200059ac:	b9408815 	ldr	w21, [x0, #136]
    200059b0:	b9408a61 	ldr	w1, [x19, #136]
    200059b4:	0a340034 	bic	w20, w1, w20
    200059b8:	b9008a74 	str	w20, [x19, #136]
    200059bc:	97fff401 	bl	200029c0 <vPortExitCritical>
    200059c0:	2a1503e0 	mov	w0, w21
    200059c4:	a94153f3 	ldp	x19, x20, [sp, #16]
    200059c8:	f94013f5 	ldr	x21, [sp, #32]
    200059cc:	a8c37bfd 	ldp	x29, x30, [sp], #48
    200059d0:	d65f03c0 	ret
    200059d4:	d0000015 	adrp	x21, 20007000 <pt_config>
    200059d8:	f940aaa0 	ldr	x0, [x21, #336]
    200059dc:	f9400013 	ldr	x19, [x0]
    200059e0:	17fffff0 	b	200059a0 <ulTaskNotifyValueClear+0x20>
	...

00000000200059f0 <prvCheckForValidListAndQueue>:
    200059f0:	a9bd7bfd 	stp	x29, x30, [sp, #-48]!
    200059f4:	910003fd 	mov	x29, sp
    200059f8:	a90153f3 	stp	x19, x20, [sp, #16]
    200059fc:	f0000013 	adrp	x19, 20008000 <__bss_start>
    20005a00:	97fff454 	bl	20002b50 <vPortEnterCritical>
    20005a04:	f944aa60 	ldr	x0, [x19, #2384]
    20005a08:	b4000080 	cbz	x0, 20005a18 <prvCheckForValidListAndQueue+0x28>
    20005a0c:	a94153f3 	ldp	x19, x20, [sp, #16]
    20005a10:	a8c37bfd 	ldp	x29, x30, [sp], #48
    20005a14:	17fff3eb 	b	200029c0 <vPortExitCritical>
    20005a18:	91254274 	add	x20, x19, #0x950
    20005a1c:	a9025bf5 	stp	x21, x22, [sp, #32]
    20005a20:	91002296 	add	x22, x20, #0x8
    20005a24:	9100c295 	add	x21, x20, #0x30
    20005a28:	aa1603e0 	mov	x0, x22
    20005a2c:	97fff641 	bl	20003330 <vListInitialise>
    20005a30:	aa1503e0 	mov	x0, x21
    20005a34:	97fff63f 	bl	20003330 <vListInitialise>
    20005a38:	52800002 	mov	w2, #0x0                   	// #0
    20005a3c:	d2800301 	mov	x1, #0x18                  	// #24
    20005a40:	a905d696 	stp	x22, x21, [x20, #88]
    20005a44:	d28000a0 	mov	x0, #0x5                   	// #5
    20005a48:	97fff736 	bl	20003720 <xQueueGenericCreate>
    20005a4c:	f904aa60 	str	x0, [x19, #2384]
    20005a50:	a94153f3 	ldp	x19, x20, [sp, #16]
    20005a54:	a9425bf5 	ldp	x21, x22, [sp, #32]
    20005a58:	a8c37bfd 	ldp	x29, x30, [sp], #48
    20005a5c:	17fff3d9 	b	200029c0 <vPortExitCritical>

0000000020005a60 <prvInsertTimerInActiveList>:
    20005a60:	a9bf7bfd 	stp	x29, x30, [sp, #-16]!
    20005a64:	910003fd 	mov	x29, sp
    20005a68:	eb02003f 	cmp	x1, x2
    20005a6c:	aa0003e4 	mov	x4, x0
    20005a70:	f9000401 	str	x1, [x0, #8]
    20005a74:	f9001000 	str	x0, [x0, #32]
    20005a78:	54000108 	b.hi	20005a98 <prvInsertTimerInActiveList+0x38>  // b.pmore
    20005a7c:	f9401881 	ldr	x1, [x4, #48]
    20005a80:	cb030042 	sub	x2, x2, x3
    20005a84:	d2800020 	mov	x0, #0x1                   	// #1
    20005a88:	eb01005f 	cmp	x2, x1
    20005a8c:	540001c3 	b.cc	20005ac4 <prvInsertTimerInActiveList+0x64>  // b.lo, b.ul, b.last
    20005a90:	a8c17bfd 	ldp	x29, x30, [sp], #16
    20005a94:	d65f03c0 	ret
    20005a98:	eb03005f 	cmp	x2, x3
    20005a9c:	d2800020 	mov	x0, #0x1                   	// #1
    20005aa0:	fa433020 	ccmp	x1, x3, #0x0, cc  // cc = lo, ul, last
    20005aa4:	54ffff62 	b.cs	20005a90 <prvInsertTimerInActiveList+0x30>  // b.hs, b.nlast
    20005aa8:	f0000000 	adrp	x0, 20008000 <__bss_start>
    20005aac:	91002081 	add	x1, x4, #0x8
    20005ab0:	f944d400 	ldr	x0, [x0, #2472]
    20005ab4:	97fff637 	bl	20003390 <vListInsert>
    20005ab8:	a8c17bfd 	ldp	x29, x30, [sp], #16
    20005abc:	d2800000 	mov	x0, #0x0                   	// #0
    20005ac0:	d65f03c0 	ret
    20005ac4:	f0000000 	adrp	x0, 20008000 <__bss_start>
    20005ac8:	91002081 	add	x1, x4, #0x8
    20005acc:	f944d800 	ldr	x0, [x0, #2480]
    20005ad0:	97fff630 	bl	20003390 <vListInsert>
    20005ad4:	a8c17bfd 	ldp	x29, x30, [sp], #16
    20005ad8:	d2800000 	mov	x0, #0x0                   	// #0
    20005adc:	d65f03c0 	ret

0000000020005ae0 <xTimerCreateTimerTask>:
    20005ae0:	a9bf7bfd 	stp	x29, x30, [sp, #-16]!
    20005ae4:	910003fd 	mov	x29, sp
    20005ae8:	97ffffc2 	bl	200059f0 <prvCheckForValidListAndQueue>
    20005aec:	f0000000 	adrp	x0, 20008000 <__bss_start>
    20005af0:	91254005 	add	x5, x0, #0x950
    20005af4:	f944a800 	ldr	x0, [x0, #2384]
    20005af8:	b4000160 	cbz	x0, 20005b24 <xTimerCreateTimerTask+0x44>
    20005afc:	b0000001 	adrp	x1, 20006000 <uxTimerGetReloadMode>
    20005b00:	90000000 	adrp	x0, 20005000 <xTaskGetSchedulerState+0x20>
    20005b04:	a8c17bfd 	ldp	x29, x30, [sp], #16
    20005b08:	9101a0a5 	add	x5, x5, #0x68
    20005b0c:	91132021 	add	x1, x1, #0x4c8
    20005b10:	91344000 	add	x0, x0, #0xd10
    20005b14:	d28000e4 	mov	x4, #0x7                   	// #7
    20005b18:	d2800003 	mov	x3, #0x0                   	// #0
    20005b1c:	52803202 	mov	w2, #0x190                 	// #400
    20005b20:	17fffa64 	b	200044b0 <xTaskCreate>
    20005b24:	d2800000 	mov	x0, #0x0                   	// #0
    20005b28:	a8c17bfd 	ldp	x29, x30, [sp], #16
    20005b2c:	d65f03c0 	ret

0000000020005b30 <xTimerCreate>:
    20005b30:	a9bc7bfd 	stp	x29, x30, [sp, #-64]!
    20005b34:	910003fd 	mov	x29, sp
    20005b38:	a90363f7 	stp	x23, x24, [sp, #48]
    20005b3c:	aa0003f7 	mov	x23, x0
    20005b40:	d2800a00 	mov	x0, #0x50                  	// #80
    20005b44:	aa0103f8 	mov	x24, x1
    20005b48:	a90153f3 	stp	x19, x20, [sp, #16]
    20005b4c:	aa0203f4 	mov	x20, x2
    20005b50:	a9025bf5 	stp	x21, x22, [sp, #32]
    20005b54:	aa0303f6 	mov	x22, x3
    20005b58:	aa0403f5 	mov	x21, x4
    20005b5c:	94000181 	bl	20006160 <pvPortMalloc>
    20005b60:	aa0003f3 	mov	x19, x0
    20005b64:	b4000180 	cbz	x0, 20005b94 <xTimerCreate+0x64>
    20005b68:	3901201f 	strb	wzr, [x0, #72]
    20005b6c:	97ffffa1 	bl	200059f0 <prvCheckForValidListAndQueue>
    20005b70:	91002260 	add	x0, x19, #0x8
    20005b74:	f9000277 	str	x23, [x19]
    20005b78:	a9035a78 	stp	x24, x22, [x19, #48]
    20005b7c:	f9002275 	str	x21, [x19, #64]
    20005b80:	97fff5f4 	bl	20003350 <vListInitialiseItem>
    20005b84:	b4000094 	cbz	x20, 20005b94 <xTimerCreate+0x64>
    20005b88:	39412260 	ldrb	w0, [x19, #72]
    20005b8c:	321e0000 	orr	w0, w0, #0x4
    20005b90:	39012260 	strb	w0, [x19, #72]
    20005b94:	aa1303e0 	mov	x0, x19
    20005b98:	a94153f3 	ldp	x19, x20, [sp, #16]
    20005b9c:	a9425bf5 	ldp	x21, x22, [sp, #32]
    20005ba0:	a94363f7 	ldp	x23, x24, [sp, #48]
    20005ba4:	a8c47bfd 	ldp	x29, x30, [sp], #64
    20005ba8:	d65f03c0 	ret
    20005bac:	d503201f 	nop

0000000020005bb0 <xTimerGenericCommand>:
    20005bb0:	a9bc7bfd 	stp	x29, x30, [sp, #-64]!
    20005bb4:	910003fd 	mov	x29, sp
    20005bb8:	a90153f3 	stp	x19, x20, [sp, #16]
    20005bbc:	f0000014 	adrp	x20, 20008000 <__bss_start>
    20005bc0:	f944aa86 	ldr	x6, [x20, #2384]
    20005bc4:	b4000326 	cbz	x6, 20005c28 <xTimerGenericCommand+0x78>
    20005bc8:	f100143f 	cmp	x1, #0x5
    20005bcc:	a9028be1 	stp	x1, x2, [sp, #40]
    20005bd0:	f9001fe0 	str	x0, [sp, #56]
    20005bd4:	540001ac 	b.gt	20005c08 <xTimerGenericCommand+0x58>
    20005bd8:	aa0403f3 	mov	x19, x4
    20005bdc:	97fffd01 	bl	20004fe0 <xTaskGetSchedulerState>
    20005be0:	f100081f 	cmp	x0, #0x2
    20005be4:	540002a0 	b.eq	20005c38 <xTimerGenericCommand+0x88>  // b.none
    20005be8:	9100a3e1 	add	x1, sp, #0x28
    20005bec:	f944aa80 	ldr	x0, [x20, #2384]
    20005bf0:	d2800003 	mov	x3, #0x0                   	// #0
    20005bf4:	d2800002 	mov	x2, #0x0                   	// #0
    20005bf8:	97fff6fe 	bl	200037f0 <xQueueGenericSend>
    20005bfc:	a94153f3 	ldp	x19, x20, [sp, #16]
    20005c00:	a8c47bfd 	ldp	x29, x30, [sp], #64
    20005c04:	d65f03c0 	ret
    20005c08:	aa0303e2 	mov	x2, x3
    20005c0c:	9100a3e1 	add	x1, sp, #0x28
    20005c10:	aa0603e0 	mov	x0, x6
    20005c14:	d2800003 	mov	x3, #0x0                   	// #0
    20005c18:	97fff77a 	bl	20003a00 <xQueueGenericSendFromISR>
    20005c1c:	a94153f3 	ldp	x19, x20, [sp, #16]
    20005c20:	a8c47bfd 	ldp	x29, x30, [sp], #64
    20005c24:	d65f03c0 	ret
    20005c28:	d2800000 	mov	x0, #0x0                   	// #0
    20005c2c:	a94153f3 	ldp	x19, x20, [sp, #16]
    20005c30:	a8c47bfd 	ldp	x29, x30, [sp], #64
    20005c34:	d65f03c0 	ret
    20005c38:	aa1303e2 	mov	x2, x19
    20005c3c:	9100a3e1 	add	x1, sp, #0x28
    20005c40:	f944aa80 	ldr	x0, [x20, #2384]
    20005c44:	d2800003 	mov	x3, #0x0                   	// #0
    20005c48:	97fff6ea 	bl	200037f0 <xQueueGenericSend>
    20005c4c:	a94153f3 	ldp	x19, x20, [sp, #16]
    20005c50:	a8c47bfd 	ldp	x29, x30, [sp], #64
    20005c54:	d65f03c0 	ret
    20005c58:	d503201f 	nop
    20005c5c:	d503201f 	nop

0000000020005c60 <prvSwitchTimerLists>:
    20005c60:	a9bd7bfd 	stp	x29, x30, [sp, #-48]!
    20005c64:	910003fd 	mov	x29, sp
    20005c68:	a90153f3 	stp	x19, x20, [sp, #16]
    20005c6c:	a9025bf5 	stp	x21, x22, [sp, #32]
    20005c70:	f0000015 	adrp	x21, 20008000 <__bss_start>
    20005c74:	912542b5 	add	x21, x21, #0x950
    20005c78:	1400000c 	b	20005ca8 <prvSwitchTimerLists+0x48>
    20005c7c:	f9400c00 	ldr	x0, [x0, #24]
    20005c80:	f9400c13 	ldr	x19, [x0, #24]
    20005c84:	f9400016 	ldr	x22, [x0]
    20005c88:	91002274 	add	x20, x19, #0x8
    20005c8c:	aa1403e0 	mov	x0, x20
    20005c90:	97fff5d8 	bl	200033f0 <uxListRemove>
    20005c94:	aa1303e0 	mov	x0, x19
    20005c98:	f9402261 	ldr	x1, [x19, #64]
    20005c9c:	d63f0020 	blr	x1
    20005ca0:	39412260 	ldrb	w0, [x19, #72]
    20005ca4:	37100140 	tbnz	w0, #2, 20005ccc <prvSwitchTimerLists+0x6c>
    20005ca8:	f9402ea0 	ldr	x0, [x21, #88]
    20005cac:	f9400001 	ldr	x1, [x0]
    20005cb0:	b5fffe61 	cbnz	x1, 20005c7c <prvSwitchTimerLists+0x1c>
    20005cb4:	f94032a1 	ldr	x1, [x21, #96]
    20005cb8:	a94153f3 	ldp	x19, x20, [sp, #16]
    20005cbc:	a90582a1 	stp	x1, x0, [x21, #88]
    20005cc0:	a9425bf5 	ldp	x21, x22, [sp, #32]
    20005cc4:	a8c37bfd 	ldp	x29, x30, [sp], #48
    20005cc8:	d65f03c0 	ret
    20005ccc:	f9401a65 	ldr	x5, [x19, #48]
    20005cd0:	d2800004 	mov	x4, #0x0                   	// #0
    20005cd4:	d2800003 	mov	x3, #0x0                   	// #0
    20005cd8:	aa1603e2 	mov	x2, x22
    20005cdc:	d2800001 	mov	x1, #0x0                   	// #0
    20005ce0:	aa1303e0 	mov	x0, x19
    20005ce4:	8b0502c5 	add	x5, x22, x5
    20005ce8:	eb0502df 	cmp	x22, x5
    20005cec:	540000e2 	b.cs	20005d08 <prvSwitchTimerLists+0xa8>  // b.hs, b.nlast
    20005cf0:	aa1403e1 	mov	x1, x20
    20005cf4:	f9000665 	str	x5, [x19, #8]
    20005cf8:	f9001273 	str	x19, [x19, #32]
    20005cfc:	f9402ea0 	ldr	x0, [x21, #88]
    20005d00:	97fff5a4 	bl	20003390 <vListInsert>
    20005d04:	17ffffe9 	b	20005ca8 <prvSwitchTimerLists+0x48>
    20005d08:	97ffffaa 	bl	20005bb0 <xTimerGenericCommand>
    20005d0c:	17ffffe7 	b	20005ca8 <prvSwitchTimerLists+0x48>

0000000020005d10 <prvTimerTask>:
    20005d10:	a9ba7bfd 	stp	x29, x30, [sp, #-96]!
    20005d14:	910003fd 	mov	x29, sp
    20005d18:	a90153f3 	stp	x19, x20, [sp, #16]
    20005d1c:	f0000013 	adrp	x19, 20008000 <__bss_start>
    20005d20:	91254273 	add	x19, x19, #0x950
    20005d24:	a9025bf5 	stp	x21, x22, [sp, #32]
    20005d28:	910123f6 	add	x22, sp, #0x48
    20005d2c:	f9001bf7 	str	x23, [sp, #48]
    20005d30:	f9402e60 	ldr	x0, [x19, #88]
    20005d34:	f9400015 	ldr	x21, [x0]
    20005d38:	b4000c35 	cbz	x21, 20005ebc <prvTimerTask+0x1ac>
    20005d3c:	f9400c00 	ldr	x0, [x0, #24]
    20005d40:	f9400015 	ldr	x21, [x0]
    20005d44:	97fffa9b 	bl	200047b0 <vTaskSuspendAll>
    20005d48:	97fffaa2 	bl	200047d0 <xTaskGetTickCount>
    20005d4c:	f9403a61 	ldr	x1, [x19, #112]
    20005d50:	aa0003f4 	mov	x20, x0
    20005d54:	eb01001f 	cmp	x0, x1
    20005d58:	54000be3 	b.cc	20005ed4 <prvTimerTask+0x1c4>  // b.lo, b.ul, b.last
    20005d5c:	eb0002bf 	cmp	x21, x0
    20005d60:	f9003a60 	str	x0, [x19, #112]
    20005d64:	d2800002 	mov	x2, #0x0                   	// #0
    20005d68:	54000c88 	b.hi	20005ef8 <prvTimerTask+0x1e8>  // b.pmore
    20005d6c:	97fffb2d 	bl	20004a20 <xTaskResumeAll>
    20005d70:	f9402e60 	ldr	x0, [x19, #88]
    20005d74:	f9400c00 	ldr	x0, [x0, #24]
    20005d78:	f9400c17 	ldr	x23, [x0, #24]
    20005d7c:	910022e0 	add	x0, x23, #0x8
    20005d80:	97fff59c 	bl	200033f0 <uxListRemove>
    20005d84:	394122e0 	ldrb	w0, [x23, #72]
    20005d88:	37100e20 	tbnz	w0, #2, 20005f4c <prvTimerTask+0x23c>
    20005d8c:	121f7800 	and	w0, w0, #0xfffffffe
    20005d90:	390122e0 	strb	w0, [x23, #72]
    20005d94:	aa1703e0 	mov	x0, x23
    20005d98:	f94022e1 	ldr	x1, [x23, #64]
    20005d9c:	d63f0020 	blr	x1
    20005da0:	d2800002 	mov	x2, #0x0                   	// #0
    20005da4:	aa1603e1 	mov	x1, x22
    20005da8:	f9400260 	ldr	x0, [x19]
    20005dac:	97fff78d 	bl	20003be0 <xQueueReceive>
    20005db0:	b4fffc00 	cbz	x0, 20005d30 <prvTimerTask+0x20>
    20005db4:	f94027e0 	ldr	x0, [sp, #72]
    20005db8:	b7ffff40 	tbnz	x0, #63, 20005da0 <prvTimerTask+0x90>
    20005dbc:	f9402ff5 	ldr	x21, [sp, #88]
    20005dc0:	f94016a0 	ldr	x0, [x21, #40]
    20005dc4:	b4000060 	cbz	x0, 20005dd0 <prvTimerTask+0xc0>
    20005dc8:	910022a0 	add	x0, x21, #0x8
    20005dcc:	97fff589 	bl	200033f0 <uxListRemove>
    20005dd0:	97fffa80 	bl	200047d0 <xTaskGetTickCount>
    20005dd4:	f9403a61 	ldr	x1, [x19, #112]
    20005dd8:	aa0003f4 	mov	x20, x0
    20005ddc:	eb01001f 	cmp	x0, x1
    20005de0:	540009a3 	b.cc	20005f14 <prvTimerTask+0x204>  // b.lo, b.ul, b.last
    20005de4:	f94027e1 	ldr	x1, [sp, #72]
    20005de8:	f9003a74 	str	x20, [x19, #112]
    20005dec:	f100143f 	cmp	x1, #0x5
    20005df0:	540009c0 	b.eq	20005f28 <prvTimerTask+0x218>  // b.none
    20005df4:	5400020c 	b.gt	20005e34 <prvTimerTask+0x124>
    20005df8:	f1000c3f 	cmp	x1, #0x3
    20005dfc:	54000a00 	b.eq	20005f3c <prvTimerTask+0x22c>  // b.none
    20005e00:	f100103f 	cmp	x1, #0x4
    20005e04:	54000241 	b.ne	20005e4c <prvTimerTask+0x13c>  // b.any
    20005e08:	394122a4 	ldrb	w4, [x21, #72]
    20005e0c:	aa1503e0 	mov	x0, x21
    20005e10:	aa1403e3 	mov	x3, x20
    20005e14:	aa1403e2 	mov	x2, x20
    20005e18:	f9402be5 	ldr	x5, [sp, #80]
    20005e1c:	32000084 	orr	w4, w4, #0x1
    20005e20:	8b1400a1 	add	x1, x5, x20
    20005e24:	f9001aa5 	str	x5, [x21, #48]
    20005e28:	390122a4 	strb	w4, [x21, #72]
    20005e2c:	97ffff0d 	bl	20005a60 <prvInsertTimerInActiveList>
    20005e30:	17ffffdc 	b	20005da0 <prvTimerTask+0x90>
    20005e34:	f100203f 	cmp	x1, #0x8
    20005e38:	54000820 	b.eq	20005f3c <prvTimerTask+0x22c>  // b.none
    20005e3c:	540003cd 	b.le	20005eb4 <prvTimerTask+0x1a4>
    20005e40:	f100243f 	cmp	x1, #0x9
    20005e44:	54fffe20 	b.eq	20005e08 <prvTimerTask+0xf8>  // b.none
    20005e48:	17ffffd6 	b	20005da0 <prvTimerTask+0x90>
    20005e4c:	f100083f 	cmp	x1, #0x2
    20005e50:	54fffa88 	b.hi	20005da0 <prvTimerTask+0x90>  // b.pmore
    20005e54:	394122a4 	ldrb	w4, [x21, #72]
    20005e58:	aa1403e2 	mov	x2, x20
    20005e5c:	aa1503e0 	mov	x0, x21
    20005e60:	f9401aa1 	ldr	x1, [x21, #48]
    20005e64:	f9402be3 	ldr	x3, [sp, #80]
    20005e68:	32000084 	orr	w4, w4, #0x1
    20005e6c:	390122a4 	strb	w4, [x21, #72]
    20005e70:	8b010061 	add	x1, x3, x1
    20005e74:	97fffefb 	bl	20005a60 <prvInsertTimerInActiveList>
    20005e78:	b4fff940 	cbz	x0, 20005da0 <prvTimerTask+0x90>
    20005e7c:	aa1503e0 	mov	x0, x21
    20005e80:	f94022a1 	ldr	x1, [x21, #64]
    20005e84:	d63f0020 	blr	x1
    20005e88:	394122a0 	ldrb	w0, [x21, #72]
    20005e8c:	3617f8a0 	tbz	w0, #2, 20005da0 <prvTimerTask+0x90>
    20005e90:	f9401aa2 	ldr	x2, [x21, #48]
    20005e94:	aa1503e0 	mov	x0, x21
    20005e98:	d2800004 	mov	x4, #0x0                   	// #0
    20005e9c:	d2800003 	mov	x3, #0x0                   	// #0
    20005ea0:	d2800001 	mov	x1, #0x0                   	// #0
    20005ea4:	f9402be5 	ldr	x5, [sp, #80]
    20005ea8:	8b0200a2 	add	x2, x5, x2
    20005eac:	97ffff41 	bl	20005bb0 <xTimerGenericCommand>
    20005eb0:	17ffffbc 	b	20005da0 <prvTimerTask+0x90>
    20005eb4:	54fffd01 	b.ne	20005e54 <prvTimerTask+0x144>  // b.any
    20005eb8:	17ffffba 	b	20005da0 <prvTimerTask+0x90>
    20005ebc:	97fffa3d 	bl	200047b0 <vTaskSuspendAll>
    20005ec0:	97fffa44 	bl	200047d0 <xTaskGetTickCount>
    20005ec4:	f9403a61 	ldr	x1, [x19, #112]
    20005ec8:	aa0003f4 	mov	x20, x0
    20005ecc:	eb01001f 	cmp	x0, x1
    20005ed0:	540000a2 	b.cs	20005ee4 <prvTimerTask+0x1d4>  // b.hs, b.nlast
    20005ed4:	97ffff63 	bl	20005c60 <prvSwitchTimerLists>
    20005ed8:	f9003a74 	str	x20, [x19, #112]
    20005edc:	97fffad1 	bl	20004a20 <xTaskResumeAll>
    20005ee0:	17ffffb0 	b	20005da0 <prvTimerTask+0x90>
    20005ee4:	f9403260 	ldr	x0, [x19, #96]
    20005ee8:	f9003a74 	str	x20, [x19, #112]
    20005eec:	f9400000 	ldr	x0, [x0]
    20005ef0:	f100001f 	cmp	x0, #0x0
    20005ef4:	9a9f17e2 	cset	x2, eq  // eq = none
    20005ef8:	f9400260 	ldr	x0, [x19]
    20005efc:	cb1402a1 	sub	x1, x21, x20
    20005f00:	97fff908 	bl	20004320 <vQueueWaitForMessageRestricted>
    20005f04:	97fffac7 	bl	20004a20 <xTaskResumeAll>
    20005f08:	b5fff4c0 	cbnz	x0, 20005da0 <prvTimerTask+0x90>
    20005f0c:	d4000001 	svc	#0x0
    20005f10:	17ffffa4 	b	20005da0 <prvTimerTask+0x90>
    20005f14:	97ffff53 	bl	20005c60 <prvSwitchTimerLists>
    20005f18:	f94027e1 	ldr	x1, [sp, #72]
    20005f1c:	f9003a74 	str	x20, [x19, #112]
    20005f20:	f100143f 	cmp	x1, #0x5
    20005f24:	54fff681 	b.ne	20005df4 <prvTimerTask+0xe4>  // b.any
    20005f28:	394122a0 	ldrb	w0, [x21, #72]
    20005f2c:	360802c0 	tbz	w0, #1, 20005f84 <prvTimerTask+0x274>
    20005f30:	121f7800 	and	w0, w0, #0xfffffffe
    20005f34:	390122a0 	strb	w0, [x21, #72]
    20005f38:	17ffff9a 	b	20005da0 <prvTimerTask+0x90>
    20005f3c:	394122a0 	ldrb	w0, [x21, #72]
    20005f40:	121f7800 	and	w0, w0, #0xfffffffe
    20005f44:	390122a0 	strb	w0, [x21, #72]
    20005f48:	17ffff96 	b	20005da0 <prvTimerTask+0x90>
    20005f4c:	f9401ae1 	ldr	x1, [x23, #48]
    20005f50:	aa1403e2 	mov	x2, x20
    20005f54:	aa1503e3 	mov	x3, x21
    20005f58:	aa1703e0 	mov	x0, x23
    20005f5c:	8b0102a1 	add	x1, x21, x1
    20005f60:	97fffec0 	bl	20005a60 <prvInsertTimerInActiveList>
    20005f64:	b4fff180 	cbz	x0, 20005d94 <prvTimerTask+0x84>
    20005f68:	aa1503e2 	mov	x2, x21
    20005f6c:	d2800004 	mov	x4, #0x0                   	// #0
    20005f70:	d2800003 	mov	x3, #0x0                   	// #0
    20005f74:	d2800001 	mov	x1, #0x0                   	// #0
    20005f78:	aa1703e0 	mov	x0, x23
    20005f7c:	97ffff0d 	bl	20005bb0 <xTimerGenericCommand>
    20005f80:	17ffff85 	b	20005d94 <prvTimerTask+0x84>
    20005f84:	aa1503e0 	mov	x0, x21
    20005f88:	940000da 	bl	200062f0 <vPortFree>
    20005f8c:	17ffff85 	b	20005da0 <prvTimerTask+0x90>

0000000020005f90 <xTimerGetTimerDaemonTaskHandle>:
    20005f90:	f0000000 	adrp	x0, 20008000 <__bss_start>
    20005f94:	f944dc00 	ldr	x0, [x0, #2488]
    20005f98:	d65f03c0 	ret
    20005f9c:	d503201f 	nop

0000000020005fa0 <xTimerGetPeriod>:
    20005fa0:	f9401800 	ldr	x0, [x0, #48]
    20005fa4:	d65f03c0 	ret
    20005fa8:	d503201f 	nop
    20005fac:	d503201f 	nop

0000000020005fb0 <vTimerSetReloadMode>:
    20005fb0:	a9be7bfd 	stp	x29, x30, [sp, #-32]!
    20005fb4:	910003fd 	mov	x29, sp
    20005fb8:	a90153f3 	stp	x19, x20, [sp, #16]
    20005fbc:	aa0103f4 	mov	x20, x1
    20005fc0:	aa0003f3 	mov	x19, x0
    20005fc4:	97fff2e3 	bl	20002b50 <vPortEnterCritical>
    20005fc8:	b40000f4 	cbz	x20, 20005fe4 <vTimerSetReloadMode+0x34>
    20005fcc:	39412260 	ldrb	w0, [x19, #72]
    20005fd0:	321e0000 	orr	w0, w0, #0x4
    20005fd4:	39012260 	strb	w0, [x19, #72]
    20005fd8:	a94153f3 	ldp	x19, x20, [sp, #16]
    20005fdc:	a8c27bfd 	ldp	x29, x30, [sp], #32
    20005fe0:	17fff278 	b	200029c0 <vPortExitCritical>
    20005fe4:	39412260 	ldrb	w0, [x19, #72]
    20005fe8:	121d7800 	and	w0, w0, #0xfffffffb
    20005fec:	12001c00 	and	w0, w0, #0xff
    20005ff0:	39012260 	strb	w0, [x19, #72]
    20005ff4:	a94153f3 	ldp	x19, x20, [sp, #16]
    20005ff8:	a8c27bfd 	ldp	x29, x30, [sp], #32
    20005ffc:	17fff271 	b	200029c0 <vPortExitCritical>

0000000020006000 <uxTimerGetReloadMode>:
    20006000:	a9be7bfd 	stp	x29, x30, [sp, #-32]!
    20006004:	910003fd 	mov	x29, sp
    20006008:	f9000bf3 	str	x19, [sp, #16]
    2000600c:	aa0003f3 	mov	x19, x0
    20006010:	97fff2d0 	bl	20002b50 <vPortEnterCritical>
    20006014:	39412273 	ldrb	w19, [x19, #72]
    20006018:	97fff26a 	bl	200029c0 <vPortExitCritical>
    2000601c:	d3420a73 	ubfx	x19, x19, #2, #1
    20006020:	aa1303e0 	mov	x0, x19
    20006024:	f9400bf3 	ldr	x19, [sp, #16]
    20006028:	a8c27bfd 	ldp	x29, x30, [sp], #32
    2000602c:	d65f03c0 	ret

0000000020006030 <xTimerGetExpiryTime>:
    20006030:	f9400400 	ldr	x0, [x0, #8]
    20006034:	d65f03c0 	ret
    20006038:	d503201f 	nop
    2000603c:	d503201f 	nop

0000000020006040 <pcTimerGetName>:
    20006040:	f9400000 	ldr	x0, [x0]
    20006044:	d65f03c0 	ret
    20006048:	d503201f 	nop
    2000604c:	d503201f 	nop

0000000020006050 <xTimerIsTimerActive>:
    20006050:	a9be7bfd 	stp	x29, x30, [sp, #-32]!
    20006054:	910003fd 	mov	x29, sp
    20006058:	f9000bf3 	str	x19, [sp, #16]
    2000605c:	aa0003f3 	mov	x19, x0
    20006060:	97fff2bc 	bl	20002b50 <vPortEnterCritical>
    20006064:	39412273 	ldrb	w19, [x19, #72]
    20006068:	97fff256 	bl	200029c0 <vPortExitCritical>
    2000606c:	92400273 	and	x19, x19, #0x1
    20006070:	aa1303e0 	mov	x0, x19
    20006074:	f9400bf3 	ldr	x19, [sp, #16]
    20006078:	a8c27bfd 	ldp	x29, x30, [sp], #32
    2000607c:	d65f03c0 	ret

0000000020006080 <pvTimerGetTimerID>:
    20006080:	a9be7bfd 	stp	x29, x30, [sp, #-32]!
    20006084:	910003fd 	mov	x29, sp
    20006088:	f9000bf3 	str	x19, [sp, #16]
    2000608c:	aa0003f3 	mov	x19, x0
    20006090:	97fff2b0 	bl	20002b50 <vPortEnterCritical>
    20006094:	f9401e73 	ldr	x19, [x19, #56]
    20006098:	97fff24a 	bl	200029c0 <vPortExitCritical>
    2000609c:	aa1303e0 	mov	x0, x19
    200060a0:	f9400bf3 	ldr	x19, [sp, #16]
    200060a4:	a8c27bfd 	ldp	x29, x30, [sp], #32
    200060a8:	d65f03c0 	ret
    200060ac:	d503201f 	nop

00000000200060b0 <vTimerSetTimerID>:
    200060b0:	a9be7bfd 	stp	x29, x30, [sp, #-32]!
    200060b4:	910003fd 	mov	x29, sp
    200060b8:	a90153f3 	stp	x19, x20, [sp, #16]
    200060bc:	aa0003f3 	mov	x19, x0
    200060c0:	aa0103f4 	mov	x20, x1
    200060c4:	97fff2a3 	bl	20002b50 <vPortEnterCritical>
    200060c8:	f9001e74 	str	x20, [x19, #56]
    200060cc:	a94153f3 	ldp	x19, x20, [sp, #16]
    200060d0:	a8c27bfd 	ldp	x29, x30, [sp], #32
    200060d4:	17fff23b 	b	200029c0 <vPortExitCritical>
	...

00000000200060e0 <prvInsertBlockIntoFreeList>:
    200060e0:	d0000004 	adrp	x4, 20008000 <__bss_start>
    200060e4:	91272081 	add	x1, x4, #0x9c8
    200060e8:	aa0103e2 	mov	x2, x1
    200060ec:	f9400021 	ldr	x1, [x1]
    200060f0:	eb00003f 	cmp	x1, x0
    200060f4:	54ffffa3 	b.cc	200060e8 <prvInsertBlockIntoFreeList+0x8>  // b.lo, b.ul, b.last
    200060f8:	f9400445 	ldr	x5, [x2, #8]
    200060fc:	f9400403 	ldr	x3, [x0, #8]
    20006100:	8b050046 	add	x6, x2, x5
    20006104:	eb06001f 	cmp	x0, x6
    20006108:	54000240 	b.eq	20006150 <prvInsertBlockIntoFreeList+0x70>  // b.none
    2000610c:	8b030005 	add	x5, x0, x3
    20006110:	eb05003f 	cmp	x1, x5
    20006114:	540000c0 	b.eq	2000612c <prvInsertBlockIntoFreeList+0x4c>  // b.none
    20006118:	f9000001 	str	x1, [x0]
    2000611c:	eb02001f 	cmp	x0, x2
    20006120:	54000040 	b.eq	20006128 <prvInsertBlockIntoFreeList+0x48>  // b.none
    20006124:	f9000040 	str	x0, [x2]
    20006128:	d65f03c0 	ret
    2000612c:	91272084 	add	x4, x4, #0x9c8
    20006130:	f9400884 	ldr	x4, [x4, #16]
    20006134:	eb04003f 	cmp	x1, x4
    20006138:	54ffff00 	b.eq	20006118 <prvInsertBlockIntoFreeList+0x38>  // b.none
    2000613c:	f9400424 	ldr	x4, [x1, #8]
    20006140:	f9400021 	ldr	x1, [x1]
    20006144:	8b030083 	add	x3, x4, x3
    20006148:	a9000c01 	stp	x1, x3, [x0]
    2000614c:	17fffff4 	b	2000611c <prvInsertBlockIntoFreeList+0x3c>
    20006150:	8b050063 	add	x3, x3, x5
    20006154:	aa0203e0 	mov	x0, x2
    20006158:	f9000443 	str	x3, [x2, #8]
    2000615c:	17ffffec 	b	2000610c <prvInsertBlockIntoFreeList+0x2c>

0000000020006160 <pvPortMalloc>:
    20006160:	a9be7bfd 	stp	x29, x30, [sp, #-32]!
    20006164:	910003fd 	mov	x29, sp
    20006168:	a90153f3 	stp	x19, x20, [sp, #16]
    2000616c:	aa0003f3 	mov	x19, x0
    20006170:	97fff990 	bl	200047b0 <vTaskSuspendAll>
    20006174:	d0000008 	adrp	x8, 20008000 <__bss_start>
    20006178:	91272100 	add	x0, x8, #0x9c8
    2000617c:	f9400801 	ldr	x1, [x0, #16]
    20006180:	b4000761 	cbz	x1, 2000626c <pvPortMalloc+0x10c>
    20006184:	f9400c0a 	ldr	x10, [x0, #24]
    20006188:	ea0a027f 	tst	x19, x10
    2000618c:	d2800014 	mov	x20, #0x0                   	// #0
    20006190:	fa400a64 	ccmp	x19, #0x0, #0x4, eq  // eq = none
    20006194:	540000c1 	b.ne	200061ac <pvPortMalloc+0x4c>  // b.any
    20006198:	97fffa22 	bl	20004a20 <xTaskResumeAll>
    2000619c:	aa1403e0 	mov	x0, x20
    200061a0:	a94153f3 	ldp	x19, x20, [sp, #16]
    200061a4:	a8c27bfd 	ldp	x29, x30, [sp], #32
    200061a8:	d65f03c0 	ret
    200061ac:	91004262 	add	x2, x19, #0x10
    200061b0:	f2400e7f 	tst	x19, #0xf
    200061b4:	927cec40 	and	x0, x2, #0xfffffffffffffff0
    200061b8:	91004000 	add	x0, x0, #0x10
    200061bc:	9a800042 	csel	x2, x2, x0, eq  // eq = none
    200061c0:	b4fffec2 	cbz	x2, 20006198 <pvPortMalloc+0x38>
    200061c4:	91272103 	add	x3, x8, #0x9c8
    200061c8:	f9401469 	ldr	x9, [x3, #40]
    200061cc:	eb02013f 	cmp	x9, x2
    200061d0:	54fffe43 	b.cc	20006198 <pvPortMalloc+0x38>  // b.lo, b.ul, b.last
    200061d4:	f944e507 	ldr	x7, [x8, #2504]
    200061d8:	14000005 	b	200061ec <pvPortMalloc+0x8c>
    200061dc:	f94000e0 	ldr	x0, [x7]
    200061e0:	b40000c0 	cbz	x0, 200061f8 <pvPortMalloc+0x98>
    200061e4:	aa0703e3 	mov	x3, x7
    200061e8:	aa0003e7 	mov	x7, x0
    200061ec:	f94004e1 	ldr	x1, [x7, #8]
    200061f0:	eb02003f 	cmp	x1, x2
    200061f4:	54ffff43 	b.cc	200061dc <pvPortMalloc+0x7c>  // b.lo, b.ul, b.last
    200061f8:	91272100 	add	x0, x8, #0x9c8
    200061fc:	f9400800 	ldr	x0, [x0, #16]
    20006200:	eb07001f 	cmp	x0, x7
    20006204:	54000700 	b.eq	200062e4 <pvPortMalloc+0x184>  // b.none
    20006208:	f94000e0 	ldr	x0, [x7]
    2000620c:	cb020024 	sub	x4, x1, x2
    20006210:	f100809f 	cmp	x4, #0x20
    20006214:	f9400074 	ldr	x20, [x3]
    20006218:	f9000060 	str	x0, [x3]
    2000621c:	91004294 	add	x20, x20, #0x10
    20006220:	54000568 	b.hi	200062cc <pvPortMalloc+0x16c>  // b.pmore
    20006224:	91272100 	add	x0, x8, #0x9c8
    20006228:	cb010129 	sub	x9, x9, x1
    2000622c:	f9401002 	ldr	x2, [x0, #32]
    20006230:	f9001409 	str	x9, [x0, #40]
    20006234:	eb02013f 	cmp	x9, x2
    20006238:	54000042 	b.cs	20006240 <pvPortMalloc+0xe0>  // b.hs, b.nlast
    2000623c:	f9001009 	str	x9, [x0, #32]
    20006240:	91272108 	add	x8, x8, #0x9c8
    20006244:	aa0a0021 	orr	x1, x1, x10
    20006248:	f9401900 	ldr	x0, [x8, #48]
    2000624c:	a90004ff 	stp	xzr, x1, [x7]
    20006250:	91000400 	add	x0, x0, #0x1
    20006254:	f9001900 	str	x0, [x8, #48]
    20006258:	97fff9f2 	bl	20004a20 <xTaskResumeAll>
    2000625c:	aa1403e0 	mov	x0, x20
    20006260:	a94153f3 	ldp	x19, x20, [sp, #16]
    20006264:	a8c27bfd 	ldp	x29, x30, [sp], #32
    20006268:	d65f03c0 	ret
    2000626c:	d0000000 	adrp	x0, 20008000 <__bss_start>
    20006270:	91282000 	add	x0, x0, #0xa08
    20006274:	f2400c1f 	tst	x0, #0xf
    20006278:	54000221 	b.ne	200062bc <pvPortMalloc+0x15c>  // b.any
    2000627c:	aa0003e1 	mov	x1, x0
    20006280:	aa0003e3 	mov	x3, x0
    20006284:	91407800 	add	x0, x0, #0x1e, lsl #12
    20006288:	91272102 	add	x2, x8, #0x9c8
    2000628c:	f904e503 	str	x3, [x8, #2504]
    20006290:	913fc000 	add	x0, x0, #0xff0
    20006294:	d2f00004 	mov	x4, #0x8000000000000000    	// #-9223372036854775808
    20006298:	927cec00 	and	x0, x0, #0xfffffffffffffff0
    2000629c:	aa0403ea 	mov	x10, x4
    200062a0:	cb010001 	sub	x1, x0, x1
    200062a4:	a900805f 	stp	xzr, x0, [x2, #8]
    200062a8:	a9007c1f 	stp	xzr, xzr, [x0]
    200062ac:	a9000460 	stp	x0, x1, [x3]
    200062b0:	a9018444 	stp	x4, x1, [x2, #24]
    200062b4:	f9001441 	str	x1, [x2, #40]
    200062b8:	17ffffb4 	b	20006188 <pvPortMalloc+0x28>
    200062bc:	91003c01 	add	x1, x0, #0xf
    200062c0:	927cec21 	and	x1, x1, #0xfffffffffffffff0
    200062c4:	aa0103e3 	mov	x3, x1
    200062c8:	17ffffef 	b	20006284 <pvPortMalloc+0x124>
    200062cc:	8b0200e0 	add	x0, x7, x2
    200062d0:	f9000404 	str	x4, [x0, #8]
    200062d4:	f90004e2 	str	x2, [x7, #8]
    200062d8:	97ffff82 	bl	200060e0 <prvInsertBlockIntoFreeList>
    200062dc:	f94004e1 	ldr	x1, [x7, #8]
    200062e0:	17ffffd1 	b	20006224 <pvPortMalloc+0xc4>
    200062e4:	d2800014 	mov	x20, #0x0                   	// #0
    200062e8:	17ffffac 	b	20006198 <pvPortMalloc+0x38>
    200062ec:	d503201f 	nop

00000000200062f0 <vPortFree>:
    200062f0:	b40001e0 	cbz	x0, 2000632c <vPortFree+0x3c>
    200062f4:	a9bd7bfd 	stp	x29, x30, [sp, #-48]!
    200062f8:	910003fd 	mov	x29, sp
    200062fc:	f85f8002 	ldur	x2, [x0, #-8]
    20006300:	f9000bf3 	str	x19, [sp, #16]
    20006304:	d0000013 	adrp	x19, 20008000 <__bss_start>
    20006308:	91272273 	add	x19, x19, #0x9c8
    2000630c:	f9400e61 	ldr	x1, [x19, #24]
    20006310:	ea01005f 	tst	x2, x1
    20006314:	54000060 	b.eq	20006320 <vPortFree+0x30>  // b.none
    20006318:	f85f0003 	ldur	x3, [x0, #-16]
    2000631c:	b40000a3 	cbz	x3, 20006330 <vPortFree+0x40>
    20006320:	f9400bf3 	ldr	x19, [sp, #16]
    20006324:	a8c37bfd 	ldp	x29, x30, [sp], #48
    20006328:	d65f03c0 	ret
    2000632c:	d65f03c0 	ret
    20006330:	8a210041 	bic	x1, x2, x1
    20006334:	f90017e0 	str	x0, [sp, #40]
    20006338:	f81f8001 	stur	x1, [x0, #-8]
    2000633c:	97fff91d 	bl	200047b0 <vTaskSuspendAll>
    20006340:	f94017e0 	ldr	x0, [sp, #40]
    20006344:	f9401662 	ldr	x2, [x19, #40]
    20006348:	f85f8001 	ldur	x1, [x0, #-8]
    2000634c:	d1004000 	sub	x0, x0, #0x10
    20006350:	8b020021 	add	x1, x1, x2
    20006354:	f9001661 	str	x1, [x19, #40]
    20006358:	97ffff62 	bl	200060e0 <prvInsertBlockIntoFreeList>
    2000635c:	f9401e60 	ldr	x0, [x19, #56]
    20006360:	91000400 	add	x0, x0, #0x1
    20006364:	f9001e60 	str	x0, [x19, #56]
    20006368:	f9400bf3 	ldr	x19, [sp, #16]
    2000636c:	a8c37bfd 	ldp	x29, x30, [sp], #48
    20006370:	17fff9ac 	b	20004a20 <xTaskResumeAll>
    20006374:	d503201f 	nop
    20006378:	d503201f 	nop
    2000637c:	d503201f 	nop

0000000020006380 <xPortGetFreeHeapSize>:
    20006380:	d0000000 	adrp	x0, 20008000 <__bss_start>
    20006384:	f944f800 	ldr	x0, [x0, #2544]
    20006388:	d65f03c0 	ret
    2000638c:	d503201f 	nop

0000000020006390 <xPortGetMinimumEverFreeHeapSize>:
    20006390:	d0000000 	adrp	x0, 20008000 <__bss_start>
    20006394:	f944f400 	ldr	x0, [x0, #2536]
    20006398:	d65f03c0 	ret
    2000639c:	d503201f 	nop

00000000200063a0 <vPortInitialiseBlocks>:
    200063a0:	d65f03c0 	ret
    200063a4:	d503201f 	nop
    200063a8:	d503201f 	nop
    200063ac:	d503201f 	nop

00000000200063b0 <vPortGetHeapStats>:
    200063b0:	a9bc7bfd 	stp	x29, x30, [sp, #-64]!
    200063b4:	910003fd 	mov	x29, sp
    200063b8:	a90153f3 	stp	x19, x20, [sp, #16]
    200063bc:	a9025bf5 	stp	x21, x22, [sp, #32]
    200063c0:	aa0003f6 	mov	x22, x0
    200063c4:	f9001bf7 	str	x23, [sp, #48]
    200063c8:	d0000017 	adrp	x23, 20008000 <__bss_start>
    200063cc:	97fff8f9 	bl	200047b0 <vTaskSuspendAll>
    200063d0:	f944e6e2 	ldr	x2, [x23, #2504]
    200063d4:	b40003e2 	cbz	x2, 20006450 <vPortGetHeapStats+0xa0>
    200063d8:	912722e0 	add	x0, x23, #0x9c8
    200063dc:	92800013 	mov	x19, #0xffffffffffffffff    	// #-1
    200063e0:	f9400800 	ldr	x0, [x0, #16]
    200063e4:	d2800014 	mov	x20, #0x0                   	// #0
    200063e8:	d2800015 	mov	x21, #0x0                   	// #0
    200063ec:	d503201f 	nop
    200063f0:	910006b5 	add	x21, x21, #0x1
    200063f4:	f9400441 	ldr	x1, [x2, #8]
    200063f8:	f9400042 	ldr	x2, [x2]
    200063fc:	eb01029f 	cmp	x20, x1
    20006400:	9a812294 	csel	x20, x20, x1, cs  // cs = hs, nlast
    20006404:	eb01027f 	cmp	x19, x1
    20006408:	9a819273 	csel	x19, x19, x1, ls  // ls = plast
    2000640c:	eb02001f 	cmp	x0, x2
    20006410:	54ffff01 	b.ne	200063f0 <vPortGetHeapStats+0x40>  // b.any
    20006414:	97fff983 	bl	20004a20 <xTaskResumeAll>
    20006418:	a900ced4 	stp	x20, x19, [x22, #8]
    2000641c:	f9000ed5 	str	x21, [x22, #24]
    20006420:	97fff1cc 	bl	20002b50 <vPortEnterCritical>
    20006424:	912722e0 	add	x0, x23, #0x9c8
    20006428:	a94153f3 	ldp	x19, x20, [sp, #16]
    2000642c:	a9420803 	ldp	x3, x2, [x0, #32]
    20006430:	a9430001 	ldp	x1, x0, [x0, #48]
    20006434:	f9401bf7 	ldr	x23, [sp, #48]
    20006438:	f90002c2 	str	x2, [x22]
    2000643c:	a90206c3 	stp	x3, x1, [x22, #32]
    20006440:	f9001ac0 	str	x0, [x22, #48]
    20006444:	a9425bf5 	ldp	x21, x22, [sp, #32]
    20006448:	a8c47bfd 	ldp	x29, x30, [sp], #64
    2000644c:	17fff15d 	b	200029c0 <vPortExitCritical>
    20006450:	92800013 	mov	x19, #0xffffffffffffffff    	// #-1
    20006454:	d2800014 	mov	x20, #0x0                   	// #0
    20006458:	d2800015 	mov	x21, #0x0                   	// #0
    2000645c:	17ffffee 	b	20006414 <vPortGetHeapStats+0x64>

Disassembly of section .text.startup:

00000000200064f0 <main>:
    200064f0:	a9bd7bfd 	stp	x29, x30, [sp, #-48]!
    200064f4:	910003fd 	mov	x29, sp
    200064f8:	a90153f3 	stp	x19, x20, [sp, #16]
    200064fc:	b0000013 	adrp	x19, 20007000 <pt_config>
    20006500:	97ffee2c 	bl	20001db0 <uart_init>
    20006504:	52800022 	mov	w2, #0x1                   	// #1
    20006508:	52800540 	mov	w0, #0x2a                  	// #42
    2000650c:	2a0203e1 	mov	w1, w2
    20006510:	97ffee6c 	bl	20001ec0 <gpio_pin_init>
    20006514:	90000000 	adrp	x0, 20006000 <uxTimerGetReloadMode>
    20006518:	91118000 	add	x0, x0, #0x460
    2000651c:	97ffede1 	bl	20001ca0 <uart_puts>
    20006520:	90000001 	adrp	x1, 20006000 <uxTimerGetReloadMode>
    20006524:	f940ce60 	ldr	x0, [x19, #408]
    20006528:	9100a3e5 	add	x5, sp, #0x28
    2000652c:	91122021 	add	x1, x1, #0x488
    20006530:	d2800204 	mov	x4, #0x10                  	// #16
    20006534:	d2800003 	mov	x3, #0x0                   	// #0
    20006538:	52804002 	mov	w2, #0x200                 	// #512
    2000653c:	97fff7dd 	bl	200044b0 <xTaskCreate>
    20006540:	90000000 	adrp	x0, 20006000 <uxTimerGetReloadMode>
    20006544:	f940ba64 	ldr	x4, [x19, #368]
    20006548:	d2800003 	mov	x3, #0x0                   	// #0
    2000654c:	91124000 	add	x0, x0, #0x490
    20006550:	d2800022 	mov	x2, #0x1                   	// #1
    20006554:	d2807d01 	mov	x1, #0x3e8                 	// #1000
    20006558:	97fffd76 	bl	20005b30 <xTimerCreate>
    2000655c:	f940a673 	ldr	x19, [x19, #328]
    20006560:	f9000260 	str	x0, [x19]
    20006564:	b4000120 	cbz	x0, 20006588 <main+0x98>
    20006568:	aa0003f4 	mov	x20, x0
    2000656c:	97fff899 	bl	200047d0 <xTaskGetTickCount>
    20006570:	aa0003e2 	mov	x2, x0
    20006574:	d2800004 	mov	x4, #0x0                   	// #0
    20006578:	aa1403e0 	mov	x0, x20
    2000657c:	d2800003 	mov	x3, #0x0                   	// #0
    20006580:	d2800021 	mov	x1, #0x1                   	// #1
    20006584:	97fffd8b 	bl	20005bb0 <xTimerGenericCommand>
    20006588:	97fff862 	bl	20004710 <vTaskStartScheduler>
    2000658c:	a94153f3 	ldp	x19, x20, [sp, #16]
    20006590:	a8c37bfd 	ldp	x29, x30, [sp], #48
    20006594:	d65f03c0 	ret
